ccopy_reg
_reconstructor
p1
(cmrec.popularity
ItemPopularityRecommender
p2
c__builtin__
object
p3
NtRp4
(dp5
S'pop_items'
p6
(lp7
(I49
I272
tp8
a(I180
I263
tp9
a(I257
I258
tp10
a(I99
I251
tp11
a(I293
I247
tp12
a(I287
I247
tp13
a(I285
I239
tp14
a(I97
I217
tp15
a(I299
I213
tp16
a(I0
I208
tp17
a(I126
I205
tp18
a(I55
I205
tp19
a(I173
I204
tp20
a(I120
I204
tp21
a(I236
I198
tp22
a(I116
I187
tp23
a(I221
I185
tp24
a(I203
I184
tp25
a(I6
I183
tp26
a(I404
I182
tp27
a(I171
I182
tp28
a(I78
I180
tp29
a(I312
I172
tp30
a(I68
I166
tp31
a(I194
I162
tp32
a(I747
I161
tp33
a(I117
I160
tp34
a(I422
I159
tp35
a(I172
I159
tp36
a(I150
I156
tp37
a(I8
I155
tp38
a(I14
I153
tp39
a(I256
I152
tp40
a(I268
I150
tp41
a(I209
I150
tp42
a(I167
I149
tp43
a(I110
I148
tp44
a(I24
I148
tp45
a(I356
I147
tp46
a(I63
I146
tp47
a(I27
I146
tp48
a(I317
I145
tp49
a(I182
I144
tp50
a(I215
I143
tp51
a(I327
I141
tp52
a(I175
I141
tp53
a(I190
I140
tp54
a(I21
I138
tp55
a(I275
I137
tp56
a(I233
I137
tp57
a(I288
I134
tp58
a(I81
I132
tp59
a(I201
I130
tp60
a(I95
I130
tp61
a(I301
I128
tp62
a(I88
I127
tp63
a(I96
I126
tp64
a(I545
I125
tp65
a(I264
I125
tp66
a(I152
I125
tp67
a(I134
I125
tp68
a(I741
I124
tp69
a(I274
I124
tp70
a(I237
I123
tp71
a(I195
I123
tp72
a(I178
I123
tp73
a(I267
I122
tp74
a(I143
I122
tp75
a(I11
I122
tp76
a(I332
I121
tp77
a(I272
I121
tp78
a(I142
I121
tp79
a(I124
I121
tp80
a(I10
I121
tp81
a(I495
I120
tp82
a(I244
I120
tp83
a(I654
I119
tp84
a(I567
I119
tp85
a(I482
I119
tp86
a(I160
I119
tp87
a(I474
I117
tp88
a(I322
I117
tp89
a(I300
I117
tp90
a(I677
I116
tp91
a(I196
I115
tp92
a(I185
I115
tp93
a(I181
I115
tp94
a(I207
I114
tp95
a(I193
I113
tp96
a(I131
I113
tp97
a(I470
I112
tp98
a(I234
I112
tp99
a(I227
I112
tp100
a(I199
I110
tp101
a(I87
I110
tp102
a(I69
I110
tp103
a(I514
I109
tp104
a(I184
I108
tp105
a(I179
I108
tp106
a(I214
I107
tp107
a(I210
I106
tp108
a(I70
I106
tp109
a(I596
I105
tp110
a(I507
I105
tp111
a(I281
I105
tp112
a(I434
I104
tp113
a(I271
I104
tp114
a(I270
I104
tp115
a(I3
I104
tp116
a(I602
I103
tp117
a(I283
I103
tp118
a(I229
I103
tp119
a(I153
I103
tp120
a(I384
I102
tp121
a(I321
I102
tp122
a(I174
I102
tp123
a(I7
I102
tp124
a(I526
I101
tp125
a(I426
I101
tp126
a(I133
I101
tp127
a(I123
I101
tp128
a(I94
I101
tp129
a(I339
I98
tp130
a(I326
I98
tp131
a(I683
I97
tp132
a(I590
I97
tp133
a(I273
I97
tp134
a(I186
I97
tp135
a(I402
I96
tp136
a(I306
I95
tp137
a(I297
I95
tp138
a(I22
I95
tp139
a(I731
I94
tp140
a(I392
I94
tp141
a(I325
I94
tp142
a(I225
I93
tp143
a(I208
I93
tp144
a(I249
I92
tp145
a(I473
I91
tp146
a(I314
I91
tp147
a(I23
I91
tp148
a(I750
I90
tp149
a(I431
I90
tp150
a(I844
I88
tp151
a(I650
I88
tp152
a(I239
I88
tp153
a(I202
I88
tp154
a(I187
I88
tp155
a(I57
I88
tp156
a(I513
I87
tp157
a(I475
I87
tp158
a(I581
I86
tp159
a(I450
I86
tp160
a(I320
I86
tp161
a(I228
I86
tp162
a(I226
I86
tp163
a(I149
I86
tp164
a(I432
I85
tp165
a(I366
I85
tp166
a(I12
I85
tp167
a(I738
I84
tp168
a(I471
I84
tp169
a(I409
I84
tp170
a(I282
I84
tp171
a(I478
I83
tp172
a(I418
I83
tp173
a(I318
I83
tp174
a(I254
I83
tp175
a(I132
I83
tp176
a(I410
I82
tp177
a(I401
I82
tp178
a(I331
I81
tp179
a(I198
I81
tp180
a(I146
I81
tp181
a(I90
I81
tp182
a(I54
I81
tp183
a(I13
I81
tp184
a(I565
I80
tp185
a(I497
I80
tp186
a(I98
I80
tp187
a(I217
I79
tp188
a(I163
I79
tp189
a(I136
I79
tp190
a(I82
I79
tp191
a(I684
I78
tp192
a(I653
I78
tp193
a(I627
I78
tp194
a(I479
I78
tp195
a(I238
I78
tp196
a(I762
I77
tp197
a(I461
I77
tp198
a(I251
I77
tp199
a(I878
I76
tp200
a(I587
I76
tp201
a(I522
I76
tp202
a(I510
I76
tp203
a(I442
I76
tp204
a(I247
I76
tp205
a(I86
I76
tp206
a(I41
I76
tp207
a(I691
I75
tp208
a(I357
I75
tp209
a(I323
I75
tp210
a(I258
I75
tp211
a(I346
I74
tp212
a(I30
I74
tp213
a(I689
I73
tp214
a(I430
I73
tp215
a(I85
I73
tp216
a(I192
I72
tp217
a(I65
I72
tp218
a(I549
I71
tp219
a(I204
I71
tp220
a(I1027
I70
tp221
a(I595
I70
tp222
a(I309
I70
tp223
a(I292
I70
tp224
a(I76
I70
tp225
a(I1
I70
tp226
a(I734
I69
tp227
a(I704
I69
tp228
a(I519
I69
tp229
a(I454
I69
tp230
a(I284
I69
tp231
a(I248
I69
tp232
a(I61
I69
tp233
a(I46
I69
tp234
a(I483
I68
tp235
a(I417
I68
tp236
a(I303
I68
tp237
a(I176
I68
tp238
a(I155
I68
tp239
a(I656
I67
tp240
a(I230
I67
tp241
a(I745
I66
tp242
a(I427
I66
tp243
a(I242
I66
tp244
a(I212
I66
tp245
a(I197
I66
tp246
a(I156
I66
tp247
a(I1046
I65
tp248
a(I1015
I65
tp249
a(I530
I65
tp250
a(I500
I65
tp251
a(I407
I65
tp252
a(I280
I65
tp253
a(I259
I65
tp254
a(I128
I65
tp255
a(I67
I65
tp256
a(I659
I64
tp257
a(I269
I64
tp258
a(I189
I64
tp259
a(I177
I64
tp260
a(I814
I63
tp261
a(I520
I63
tp262
a(I169
I63
tp263
a(I52
I63
tp264
a(I47
I63
tp265
a(I28
I63
tp266
a(I558
I62
tp267
a(I527
I62
tp268
a(I472
I62
tp269
a(I446
I62
tp270
a(I290
I62
tp271
a(I93
I62
tp272
a(I481
I61
tp273
a(I231
I61
tp274
a(I122
I61
tp275
a(I1011
I60
tp276
a(I662
I60
tp277
a(I630
I60
tp278
a(I525
I60
tp279
a(I506
I60
tp280
a(I503
I60
tp281
a(I240
I60
tp282
a(I232
I60
tp283
a(I222
I60
tp284
a(I216
I60
tp285
a(I698
I59
tp286
a(I658
I59
tp287
a(I330
I59
tp288
a(I183
I59
tp289
a(I37
I59
tp290
a(I484
I58
tp291
a(I477
I58
tp292
a(I420
I58
tp293
a(I381
I58
tp294
a(I302
I58
tp295
a(I218
I58
tp296
a(I553
I57
tp297
a(I448
I57
tp298
a(I342
I57
tp299
a(I315
I57
tp300
a(I213
I57
tp301
a(I121
I57
tp302
a(I115
I57
tp303
a(I80
I57
tp304
a(I755
I56
tp305
a(I707
I56
tp306
a(I154
I56
tp307
a(I71
I56
tp308
a(I1013
I55
tp309
a(I324
I55
tp310
a(I168
I55
tp311
a(I135
I55
tp312
a(I72
I55
tp313
a(I678
I54
tp314
a(I509
I54
tp315
a(I345
I54
tp316
a(I241
I54
tp317
a(I161
I54
tp318
a(I158
I54
tp319
a(I147
I54
tp320
a(I92
I54
tp321
a(I91
I54
tp322
a(I929
I53
tp323
a(I761
I53
tp324
a(I245
I53
tp325
a(I64
I53
tp326
a(I749
I52
tp327
a(I746
I52
tp328
a(I428
I52
tp329
a(I337
I52
tp330
a(I289
I52
tp331
a(I894
I51
tp332
a(I708
I51
tp333
a(I681
I51
tp334
a(I548
I51
tp335
a(I403
I51
tp336
a(I355
I51
tp337
a(I263
I51
tp338
a(I66
I51
tp339
a(I865
I50
tp340
a(I743
I50
tp341
a(I651
I50
tp342
a(I641
I50
tp343
a(I635
I50
tp344
a(I575
I50
tp345
a(I508
I50
tp346
a(I457
I50
tp347
a(I379
I50
tp348
a(I316
I50
tp349
a(I191
I50
tp350
a(I108
I50
tp351
a(I53
I50
tp352
a(I863
I49
tp353
a(I719
I49
tp354
a(I692
I49
tp355
a(I688
I49
tp356
a(I505
I49
tp357
a(I224
I49
tp358
a(I714
I48
tp359
a(I577
I48
tp360
a(I516
I48
tp361
a(I211
I48
tp362
a(I151
I48
tp363
a(I89
I48
tp364
a(I48
I48
tp365
a(I38
I48
tp366
a(I31
I48
tp367
a(I716
I47
tp368
a(I476
I47
tp369
a(I380
I47
tp370
a(I291
I47
tp371
a(I125
I47
tp372
a(I32
I47
tp373
a(I927
I46
tp374
a(I780
I46
tp375
a(I754
I46
tp376
a(I528
I46
tp377
a(I464
I46
tp378
a(I398
I46
tp379
a(I377
I46
tp380
a(I305
I46
tp381
a(I9
I46
tp382
a(I918
I45
tp383
a(I824
I45
tp384
a(I424
I45
tp385
a(I1010
I44
tp386
a(I628
I44
tp387
a(I518
I44
tp388
a(I162
I44
tp389
a(I62
I44
tp390
a(I987
I43
tp391
a(I830
I43
tp392
a(I664
I43
tp393
a(I639
I43
tp394
a(I435
I43
tp395
a(I130
I43
tp396
a(I50
I43
tp397
a(I4
I43
tp398
a(I1073
I42
tp399
a(I923
I42
tp400
a(I822
I42
tp401
a(I791
I42
tp402
a(I624
I42
tp403
a(I517
I42
tp404
a(I286
I42
tp405
a(I20
I42
tp406
a(I672
I41
tp407
a(I469
I41
tp408
a(I411
I41
tp409
a(I51
I41
tp410
a(I1047
I40
tp411
a(I870
I40
tp412
a(I819
I40
tp413
a(I660
I40
tp414
a(I583
I40
tp415
a(I447
I40
tp416
a(I429
I40
tp417
a(I419
I40
tp418
a(I16
I40
tp419
a(I2
I40
tp420
a(I1038
I39
tp421
a(I968
I39
tp422
a(I726
I39
tp423
a(I529
I39
tp424
a(I460
I39
tp425
a(I413
I39
tp426
a(I200
I39
tp427
a(I1072
I38
tp428
a(I728
I38
tp429
a(I603
I38
tp430
a(I524
I38
tp431
a(I416
I38
tp432
a(I408
I38
tp433
a(I279
I38
tp434
a(I140
I38
tp435
a(I104
I38
tp436
a(I43
I38
tp437
a(I1100
I37
tp438
a(I886
I37
tp439
a(I854
I37
tp440
a(I735
I37
tp441
a(I723
I37
tp442
a(I715
I37
tp443
a(I712
I37
tp444
a(I657
I37
tp445
a(I594
I37
tp446
a(I543
I37
tp447
a(I433
I37
tp448
a(I386
I37
tp449
a(I119
I37
tp450
a(I825
I36
tp451
a(I706
I36
tp452
a(I485
I36
tp453
a(I385
I36
tp454
a(I311
I36
tp455
a(I304
I36
tp456
a(I294
I36
tp457
a(I58
I36
tp458
a(I44
I36
tp459
a(I872
I35
tp460
a(I739
I35
tp461
a(I709
I35
tp462
a(I695
I35
tp463
a(I675
I35
tp464
a(I462
I35
tp465
a(I310
I35
tp466
a(I298
I35
tp467
a(I157
I35
tp468
a(I105
I35
tp469
a(I59
I35
tp470
a(I19
I35
tp471
a(I933
I34
tp472
a(I879
I34
tp473
a(I686
I34
tp474
a(I661
I34
tp475
a(I631
I34
tp476
a(I615
I34
tp477
a(I489
I34
tp478
a(I486
I34
tp479
a(I451
I34
tp480
a(I353
I34
tp481
a(I219
I34
tp482
a(I141
I34
tp483
a(I113
I34
tp484
a(I1040
I33
tp485
a(I945
I33
tp486
a(I777
I33
tp487
a(I736
I33
tp488
a(I646
I33
tp489
a(I614
I33
tp490
a(I605
I33
tp491
a(I568
I33
tp492
a(I504
I33
tp493
a(I493
I33
tp494
a(I487
I33
tp495
a(I75
I33
tp496
a(I25
I33
tp497
a(I1034
I32
tp498
a(I925
I32
tp499
a(I922
I32
tp500
a(I897
I32
tp501
a(I846
I32
tp502
a(I740
I32
tp503
a(I701
I32
tp504
a(I649
I32
tp505
a(I400
I32
tp506
a(I391
I32
tp507
a(I370
I32
tp508
a(I220
I32
tp509
a(I170
I32
tp510
a(I165
I32
tp511
a(I159
I32
tp512
a(I144
I32
tp513
a(I100
I32
tp514
a(I84
I32
tp515
a(I39
I32
tp516
a(I26
I32
tp517
a(I874
I31
tp518
a(I671
I31
tp519
a(I606
I31
tp520
a(I537
I31
tp521
a(I511
I31
tp522
a(I496
I31
tp523
a(I494
I31
tp524
a(I490
I31
tp525
a(I440
I31
tp526
a(I415
I31
tp527
a(I368
I31
tp528
a(I343
I31
tp529
a(I206
I31
tp530
a(I188
I31
tp531
a(I18
I31
tp532
a(I1118
I30
tp533
a(I992
I30
tp534
a(I948
I30
tp535
a(I885
I30
tp536
a(I839
I30
tp537
a(I753
I30
tp538
a(I720
I30
tp539
a(I647
I30
tp540
a(I618
I30
tp541
a(I560
I30
tp542
a(I501
I30
tp543
a(I344
I30
tp544
a(I333
I30
tp545
a(I139
I30
tp546
a(I101
I30
tp547
a(I1008
I29
tp548
a(I955
I29
tp549
a(I938
I29
tp550
a(I876
I29
tp551
a(I769
I29
tp552
a(I626
I29
tp553
a(I541
I29
tp554
a(I515
I29
tp555
a(I491
I29
tp556
a(I468
I29
tp557
a(I467
I29
tp558
a(I465
I29
tp559
a(I449
I29
tp560
a(I412
I29
tp561
a(I276
I29
tp562
a(I848
I28
tp563
a(I826
I28
tp564
a(I789
I28
tp565
a(I788
I28
tp566
a(I771
I28
tp567
a(I721
I28
tp568
a(I685
I28
tp569
a(I673
I28
tp570
a(I557
I28
tp571
a(I488
I28
tp572
a(I253
I28
tp573
a(I166
I28
tp574
a(I793
I27
tp575
a(I779
I27
tp576
a(I601
I27
tp577
a(I540
I27
tp578
a(I512
I27
tp579
a(I480
I27
tp580
a(I390
I27
tp581
a(I383
I27
tp582
a(I277
I27
tp583
a(I79
I27
tp584
a(I1045
I26
tp585
a(I1016
I26
tp586
a(I958
I26
tp587
a(I895
I26
tp588
a(I880
I26
tp589
a(I840
I26
tp590
a(I805
I26
tp591
a(I727
I26
tp592
a(I674
I26
tp593
a(I648
I26
tp594
a(I608
I26
tp595
a(I534
I26
tp596
a(I498
I26
tp597
a(I341
I26
tp598
a(I261
I26
tp599
a(I1134
I25
tp600
a(I1117
I25
tp601
a(I1064
I25
tp602
a(I1024
I25
tp603
a(I1009
I25
tp604
a(I954
I25
tp605
a(I951
I25
tp606
a(I947
I25
tp607
a(I930
I25
tp608
a(I768
I25
tp609
a(I767
I25
tp610
a(I760
I25
tp611
a(I580
I25
tp612
a(I569
I25
tp613
a(I492
I25
tp614
a(I296
I25
tp615
a(I250
I25
tp616
a(I164
I25
tp617
a(I60
I25
tp618
a(I1078
I24
tp619
a(I1066
I24
tp620
a(I1043
I24
tp621
a(I1019
I24
tp622
a(I976
I24
tp623
a(I901
I24
tp624
a(I832
I24
tp625
a(I809
I24
tp626
a(I687
I24
tp627
a(I613
I24
tp628
a(I205
I24
tp629
a(I127
I24
tp630
a(I1227
I23
tp631
a(I1097
I23
tp632
a(I1062
I23
tp633
a(I1050
I23
tp634
a(I941
I23
tp635
a(I931
I23
tp636
a(I891
I23
tp637
a(I881
I23
tp638
a(I748
I23
tp639
a(I632
I23
tp640
a(I609
I23
tp641
a(I552
I23
tp642
a(I455
I23
tp643
a(I394
I23
tp644
a(I364
I23
tp645
a(I1196
I22
tp646
a(I1187
I22
tp647
a(I1141
I22
tp648
a(I940
I22
tp649
a(I920
I22
tp650
a(I818
I22
tp651
a(I808
I22
tp652
a(I807
I22
tp653
a(I764
I22
tp654
a(I763
I22
tp655
a(I759
I22
tp656
a(I711
I22
tp657
a(I682
I22
tp658
a(I670
I22
tp659
a(I619
I22
tp660
a(I443
I22
tp661
a(I405
I22
tp662
a(I395
I22
tp663
a(I365
I22
tp664
a(I338
I22
tp665
a(I1266
I21
tp666
a(I970
I21
tp667
a(I921
I21
tp668
a(I889
I21
tp669
a(I784
I21
tp670
a(I645
I21
tp671
a(I636
I21
tp672
a(I561
I21
tp673
a(I551
I21
tp674
a(I538
I21
tp675
a(I466
I21
tp676
a(I378
I21
tp677
a(I362
I21
tp678
a(I328
I21
tp679
a(I243
I21
tp680
a(I235
I21
tp681
a(I223
I21
tp682
a(I138
I21
tp683
a(I106
I21
tp684
a(I77
I21
tp685
a(I1220
I20
tp686
a(I1133
I20
tp687
a(I1090
I20
tp688
a(I974
I20
tp689
a(I973
I20
tp690
a(I950
I20
tp691
a(I875
I20
tp692
a(I855
I20
tp693
a(I845
I20
tp694
a(I823
I20
tp695
a(I774
I20
tp696
a(I696
I20
tp697
a(I663
I20
tp698
a(I655
I20
tp699
a(I637
I20
tp700
a(I604
I20
tp701
a(I582
I20
tp702
a(I574
I20
tp703
a(I546
I20
tp704
a(I539
I20
tp705
a(I463
I20
tp706
a(I421
I20
tp707
a(I406
I20
tp708
a(I369
I20
tp709
a(I265
I20
tp710
a(I260
I20
tp711
a(I107
I20
tp712
a(I15
I20
tp713
a(I1410
I19
tp714
a(I1089
I19
tp715
a(I1059
I19
tp716
a(I1022
I19
tp717
a(I1012
I19
tp718
a(I1006
I19
tp719
a(I989
I19
tp720
a(I960
I19
tp721
a(I812
I19
tp722
a(I782
I19
tp723
a(I770
I19
tp724
a(I742
I19
tp725
a(I693
I19
tp726
a(I638
I19
tp727
a(I584
I19
tp728
a(I576
I19
tp729
a(I566
I19
tp730
a(I502
I19
tp731
a(I1138
I18
tp732
a(I1132
I18
tp733
a(I1020
I18
tp734
a(I1007
I18
tp735
a(I928
I18
tp736
a(I899
I18
tp737
a(I843
I18
tp738
a(I722
I18
tp739
a(I611
I18
tp740
a(I610
I18
tp741
a(I523
I18
tp742
a(I521
I18
tp743
a(I335
I18
tp744
a(I308
I18
tp745
a(I109
I18
tp746
a(I56
I18
tp747
a(I29
I18
tp748
a(I1216
I17
tp749
a(I1156
I17
tp750
a(I1088
I17
tp751
a(I1049
I17
tp752
a(I978
I17
tp753
a(I943
I17
tp754
a(I942
I17
tp755
a(I871
I17
tp756
a(I799
I17
tp757
a(I796
I17
tp758
a(I629
I17
tp759
a(I622
I17
tp760
a(I621
I17
tp761
a(I382
I17
tp762
a(I329
I17
tp763
a(I1243
I16
tp764
a(I994
I16
tp765
a(I944
I16
tp766
a(I939
I16
tp767
a(I924
I16
tp768
a(I801
I16
tp769
a(I778
I16
tp770
a(I737
I16
tp771
a(I730
I16
tp772
a(I633
I16
tp773
a(I607
I16
tp774
a(I588
I16
tp775
a(I585
I16
tp776
a(I562
I16
tp777
a(I499
I16
tp778
a(I372
I16
tp779
a(I371
I16
tp780
a(I367
I16
tp781
a(I354
I16
tp782
a(I347
I16
tp783
a(I278
I16
tp784
a(I42
I16
tp785
a(I40
I16
tp786
a(I1225
I15
tp787
a(I1219
I15
tp788
a(I1209
I15
tp789
a(I1193
I15
tp790
a(I1109
I15
tp791
a(I1108
I15
tp792
a(I1058
I15
tp793
a(I1053
I15
tp794
a(I1018
I15
tp795
a(I988
I15
tp796
a(I983
I15
tp797
a(I962
I15
tp798
a(I936
I15
tp799
a(I877
I15
tp800
a(I751
I15
tp801
a(I669
I15
tp802
a(I643
I15
tp803
a(I640
I15
tp804
a(I572
I15
tp805
a(I571
I15
tp806
a(I570
I15
tp807
a(I363
I15
tp808
a(I361
I15
tp809
a(I307
I15
tp810
a(I1239
I14
tp811
a(I1217
I14
tp812
a(I1167
I14
tp813
a(I1151
I14
tp814
a(I1146
I14
tp815
a(I1136
I14
tp816
a(I1128
I14
tp817
a(I1125
I14
tp818
a(I1114
I14
tp819
a(I1044
I14
tp820
a(I1039
I14
tp821
a(I990
I14
tp822
a(I961
I14
tp823
a(I949
I14
tp824
a(I842
I14
tp825
a(I795
I14
tp826
a(I718
I14
tp827
a(I703
I14
tp828
a(I612
I14
tp829
a(I579
I14
tp830
a(I564
I14
tp831
a(I374
I14
tp832
a(I351
I14
tp833
a(I129
I14
tp834
a(I1418
I13
tp835
a(I1218
I13
tp836
a(I1169
I13
tp837
a(I1159
I13
tp838
a(I1135
I13
tp839
a(I1131
I13
tp840
a(I1120
I13
tp841
a(I1112
I13
tp842
a(I1060
I13
tp843
a(I1056
I13
tp844
a(I1052
I13
tp845
a(I1036
I13
tp846
a(I1004
I13
tp847
a(I984
I13
tp848
a(I971
I13
tp849
a(I959
I13
tp850
a(I952
I13
tp851
a(I873
I13
tp852
a(I835
I13
tp853
a(I831
I13
tp854
a(I773
I13
tp855
a(I733
I13
tp856
a(I679
I13
tp857
a(I623
I13
tp858
a(I459
I13
tp859
a(I458
I13
tp860
a(I444
I13
tp861
a(I349
I13
tp862
a(I319
I13
tp863
a(I5
I13
tp864
a(I1283
I12
tp865
a(I1207
I12
tp866
a(I1198
I12
tp867
a(I1184
I12
tp868
a(I1177
I12
tp869
a(I1148
I12
tp870
a(I1092
I12
tp871
a(I1035
I12
tp872
a(I1032
I12
tp873
a(I1031
I12
tp874
a(I979
I12
tp875
a(I977
I12
tp876
a(I905
I12
tp877
a(I862
I12
tp878
a(I841
I12
tp879
a(I833
I12
tp880
a(I652
I12
tp881
a(I600
I12
tp882
a(I536
I12
tp883
a(I531
I12
tp884
a(I456
I12
tp885
a(I414
I12
tp886
a(I388
I12
tp887
a(I358
I12
tp888
a(I334
I12
tp889
a(I262
I12
tp890
a(I1314
I11
tp891
a(I1247
I11
tp892
a(I1214
I11
tp893
a(I1175
I11
tp894
a(I1170
I11
tp895
a(I1106
I11
tp896
a(I1077
I11
tp897
a(I1070
I11
tp898
a(I1048
I11
tp899
a(I1021
I11
tp900
a(I964
I11
tp901
a(I935
I11
tp902
a(I903
I11
tp903
a(I864
I11
tp904
a(I836
I11
tp905
a(I820
I11
tp906
a(I810
I11
tp907
a(I804
I11
tp908
a(I729
I11
tp909
a(I616
I11
tp910
a(I563
I11
tp911
a(I559
I11
tp912
a(I453
I11
tp913
a(I423
I11
tp914
a(I397
I11
tp915
a(I375
I11
tp916
a(I348
I11
tp917
a(I1450
I10
tp918
a(I1302
I10
tp919
a(I1285
I10
tp920
a(I1280
I10
tp921
a(I1238
I10
tp922
a(I1231
I10
tp923
a(I1230
I10
tp924
a(I1162
I10
tp925
a(I1119
I10
tp926
a(I1098
I10
tp927
a(I1033
I10
tp928
a(I1000
I10
tp929
a(I965
I10
tp930
a(I893
I10
tp931
a(I868
I10
tp932
a(I828
I10
tp933
a(I815
I10
tp934
a(I811
I10
tp935
a(I752
I10
tp936
a(I680
I10
tp937
a(I644
I10
tp938
a(I586
I10
tp939
a(I578
I10
tp940
a(I573
I10
tp941
a(I542
I10
tp942
a(I425
I10
tp943
a(I387
I10
tp944
a(I350
I10
tp945
a(I111
I10
tp946
a(I45
I10
tp947
a(I1517
I9
tp948
a(I1310
I9
tp949
a(I1295
I9
tp950
a(I1282
I9
tp951
a(I1229
I9
tp952
a(I1228
I9
tp953
a(I1202
I9
tp954
a(I1182
I9
tp955
a(I1116
I9
tp956
a(I1102
I9
tp957
a(I1093
I9
tp958
a(I1083
I9
tp959
a(I1069
I9
tp960
a(I1068
I9
tp961
a(I1065
I9
tp962
a(I1037
I9
tp963
a(I1017
I9
tp964
a(I985
I9
tp965
a(I967
I9
tp966
a(I932
I9
tp967
a(I915
I9
tp968
a(I907
I9
tp969
a(I904
I9
tp970
a(I902
I9
tp971
a(I887
I9
tp972
a(I859
I9
tp973
a(I817
I9
tp974
a(I800
I9
tp975
a(I772
I9
tp976
a(I757
I9
tp977
a(I702
I9
tp978
a(I699
I9
tp979
a(I634
I9
tp980
a(I617
I9
tp981
a(I554
I9
tp982
a(I550
I9
tp983
a(I452
I9
tp984
a(I399
I9
tp985
a(I376
I9
tp986
a(I352
I9
tp987
a(I340
I9
tp988
a(I148
I9
tp989
a(I1477
I8
tp990
a(I1472
I8
tp991
a(I1445
I8
tp992
a(I1443
I8
tp993
a(I1313
I8
tp994
a(I1290
I8
tp995
a(I1276
I8
tp996
a(I1272
I8
tp997
a(I1257
I8
tp998
a(I1223
I8
tp999
a(I1221
I8
tp1000
a(I1171
I8
tp1001
a(I1152
I8
tp1002
a(I1127
I8
tp1003
a(I1086
I8
tp1004
a(I1057
I8
tp1005
a(I1051
I8
tp1006
a(I1028
I8
tp1007
a(I999
I8
tp1008
a(I937
I8
tp1009
a(I908
I8
tp1010
a(I882
I8
tp1011
a(I861
I8
tp1012
a(I858
I8
tp1013
a(I794
I8
tp1014
a(I785
I8
tp1015
a(I744
I8
tp1016
a(I725
I8
tp1017
a(I556
I8
tp1018
a(I336
I8
tp1019
a(I255
I8
tp1020
a(I252
I8
tp1021
a(I102
I8
tp1022
a(I1424
I7
tp1023
a(I1392
I7
tp1024
a(I1335
I7
tp1025
a(I1284
I7
tp1026
a(I1279
I7
tp1027
a(I1264
I7
tp1028
a(I1208
I7
tp1029
a(I1203
I7
tp1030
a(I1191
I7
tp1031
a(I1189
I7
tp1032
a(I1186
I7
tp1033
a(I1180
I7
tp1034
a(I1142
I7
tp1035
a(I1123
I7
tp1036
a(I1096
I7
tp1037
a(I1094
I7
tp1038
a(I1085
I7
tp1039
a(I1075
I7
tp1040
a(I1061
I7
tp1041
a(I1041
I7
tp1042
a(I1014
I7
tp1043
a(I1003
I7
tp1044
a(I997
I7
tp1045
a(I995
I7
tp1046
a(I982
I7
tp1047
a(I957
I7
tp1048
a(I914
I7
tp1049
a(I913
I7
tp1050
a(I892
I7
tp1051
a(I853
I7
tp1052
a(I775
I7
tp1053
a(I724
I7
tp1054
a(I620
I7
tp1055
a(I592
I7
tp1056
a(I544
I7
tp1057
a(I533
I7
tp1058
a(I532
I7
tp1059
a(I360
I7
tp1060
a(I83
I7
tp1061
a(I1482
I6
tp1062
a(I1479
I6
tp1063
a(I1478
I6
tp1064
a(I1427
I6
tp1065
a(I1400
I6
tp1066
a(I1374
I6
tp1067
a(I1336
I6
tp1068
a(I1299
I6
tp1069
a(I1281
I6
tp1070
a(I1277
I6
tp1071
a(I1273
I6
tp1072
a(I1267
I6
tp1073
a(I1262
I6
tp1074
a(I1253
I6
tp1075
a(I1251
I6
tp1076
a(I1250
I6
tp1077
a(I1244
I6
tp1078
a(I1213
I6
tp1079
a(I1211
I6
tp1080
a(I1206
I6
tp1081
a(I1205
I6
tp1082
a(I1199
I6
tp1083
a(I1197
I6
tp1084
a(I1183
I6
tp1085
a(I1181
I6
tp1086
a(I1165
I6
tp1087
a(I1164
I6
tp1088
a(I1160
I6
tp1089
a(I1153
I6
tp1090
a(I1139
I6
tp1091
a(I1113
I6
tp1092
a(I1111
I6
tp1093
a(I1030
I6
tp1094
a(I1023
I6
tp1095
a(I1005
I6
tp1096
a(I1001
I6
tp1097
a(I975
I6
tp1098
a(I966
I6
tp1099
a(I946
I6
tp1100
a(I911
I6
tp1101
a(I888
I6
tp1102
a(I852
I6
tp1103
a(I834
I6
tp1104
a(I802
I6
tp1105
a(I792
I6
tp1106
a(I766
I6
tp1107
a(I717
I6
tp1108
a(I713
I6
tp1109
a(I697
I6
tp1110
a(I694
I6
tp1111
a(I668
I6
tp1112
a(I589
I6
tp1113
a(I547
I6
tp1114
a(I396
I6
tp1115
a(I373
I6
tp1116
a(I359
I6
tp1117
a(I145
I6
tp1118
a(I114
I6
tp1119
a(I35
I6
tp1120
a(I34
I6
tp1121
a(I1614
I5
tp1122
a(I1502
I5
tp1123
a(I1436
I5
tp1124
a(I1433
I5
tp1125
a(I1399
I5
tp1126
a(I1393
I5
tp1127
a(I1334
I5
tp1128
a(I1312
I5
tp1129
a(I1288
I5
tp1130
a(I1268
I5
tp1131
a(I1265
I5
tp1132
a(I1246
I5
tp1133
a(I1226
I5
tp1134
a(I1224
I5
tp1135
a(I1161
I5
tp1136
a(I1149
I5
tp1137
a(I1147
I5
tp1138
a(I1144
I5
tp1139
a(I1130
I5
tp1140
a(I1115
I5
tp1141
a(I1091
I5
tp1142
a(I1084
I5
tp1143
a(I1076
I5
tp1144
a(I1071
I5
tp1145
a(I1055
I5
tp1146
a(I1054
I5
tp1147
a(I1029
I5
tp1148
a(I1002
I5
tp1149
a(I998
I5
tp1150
a(I981
I5
tp1151
a(I900
I5
tp1152
a(I827
I5
tp1153
a(I797
I5
tp1154
a(I790
I5
tp1155
a(I786
I5
tp1156
a(I765
I5
tp1157
a(I732
I5
tp1158
a(I700
I5
tp1159
a(I690
I5
tp1160
a(I666
I5
tp1161
a(I439
I5
tp1162
a(I393
I5
tp1163
a(I389
I5
tp1164
a(I137
I5
tp1165
a(I112
I5
tp1166
a(I103
I5
tp1167
a(I17
I5
tp1168
a(I1663
I4
tp1169
a(I1596
I4
tp1170
a(I1539
I4
tp1171
a(I1538
I4
tp1172
a(I1536
I4
tp1173
a(I1526
I4
tp1174
a(I1508
I4
tp1175
a(I1500
I4
tp1176
a(I1473
I4
tp1177
a(I1470
I4
tp1178
a(I1461
I4
tp1179
a(I1453
I4
tp1180
a(I1442
I4
tp1181
a(I1440
I4
tp1182
a(I1408
I4
tp1183
a(I1403
I4
tp1184
a(I1394
I4
tp1185
a(I1387
I4
tp1186
a(I1385
I4
tp1187
a(I1382
I4
tp1188
a(I1378
I4
tp1189
a(I1345
I4
tp1190
a(I1315
I4
tp1191
a(I1297
I4
tp1192
a(I1294
I4
tp1193
a(I1278
I4
tp1194
a(I1263
I4
tp1195
a(I1261
I4
tp1196
a(I1254
I4
tp1197
a(I1249
I4
tp1198
a(I1248
I4
tp1199
a(I1236
I4
tp1200
a(I1212
I4
tp1201
a(I1201
I4
tp1202
a(I1194
I4
tp1203
a(I1178
I4
tp1204
a(I1174
I4
tp1205
a(I1172
I4
tp1206
a(I1168
I4
tp1207
a(I1150
I4
tp1208
a(I1126
I4
tp1209
a(I1104
I4
tp1210
a(I1099
I4
tp1211
a(I1087
I4
tp1212
a(I1082
I4
tp1213
a(I1080
I4
tp1214
a(I1074
I4
tp1215
a(I1025
I4
tp1216
a(I996
I4
tp1217
a(I969
I4
tp1218
a(I953
I4
tp1219
a(I898
I4
tp1220
a(I884
I4
tp1221
a(I869
I4
tp1222
a(I847
I4
tp1223
a(I803
I4
tp1224
a(I758
I4
tp1225
a(I665
I4
tp1226
a(I593
I4
tp1227
a(I555
I4
tp1228
a(I535
I4
tp1229
a(I445
I4
tp1230
a(I313
I4
tp1231
a(I246
I4
tp1232
a(I73
I4
tp1233
a(I33
I4
tp1234
a(I1638
I3
tp1235
a(I1619
I3
tp1236
a(I1611
I3
tp1237
a(I1607
I3
tp1238
a(I1529
I3
tp1239
a(I1528
I3
tp1240
a(I1511
I3
tp1241
a(I1510
I3
tp1242
a(I1494
I3
tp1243
a(I1474
I3
tp1244
a(I1467
I3
tp1245
a(I1465
I3
tp1246
a(I1458
I3
tp1247
a(I1455
I3
tp1248
a(I1448
I3
tp1249
a(I1438
I3
tp1250
a(I1428
I3
tp1251
a(I1420
I3
tp1252
a(I1414
I3
tp1253
a(I1412
I3
tp1254
a(I1411
I3
tp1255
a(I1407
I3
tp1256
a(I1406
I3
tp1257
a(I1405
I3
tp1258
a(I1404
I3
tp1259
a(I1396
I3
tp1260
a(I1395
I3
tp1261
a(I1391
I3
tp1262
a(I1390
I3
tp1263
a(I1380
I3
tp1264
a(I1379
I3
tp1265
a(I1375
I3
tp1266
a(I1367
I3
tp1267
a(I1354
I3
tp1268
a(I1343
I3
tp1269
a(I1330
I3
tp1270
a(I1327
I3
tp1271
a(I1321
I3
tp1272
a(I1301
I3
tp1273
a(I1298
I3
tp1274
a(I1296
I3
tp1275
a(I1275
I3
tp1276
a(I1274
I3
tp1277
a(I1271
I3
tp1278
a(I1270
I3
tp1279
a(I1242
I3
tp1280
a(I1237
I3
tp1281
a(I1233
I3
tp1282
a(I1232
I3
tp1283
a(I1222
I3
tp1284
a(I1215
I3
tp1285
a(I1210
I3
tp1286
a(I1192
I3
tp1287
a(I1190
I3
tp1288
a(I1179
I3
tp1289
a(I1173
I3
tp1290
a(I1163
I3
tp1291
a(I1158
I3
tp1292
a(I1140
I3
tp1293
a(I1107
I3
tp1294
a(I1081
I3
tp1295
a(I980
I3
tp1296
a(I972
I3
tp1297
a(I963
I3
tp1298
a(I917
I3
tp1299
a(I910
I3
tp1300
a(I890
I3
tp1301
a(I867
I3
tp1302
a(I866
I3
tp1303
a(I849
I3
tp1304
a(I816
I3
tp1305
a(I806
I3
tp1306
a(I798
I3
tp1307
a(I787
I3
tp1308
a(I781
I3
tp1309
a(I625
I3
tp1310
a(I591
I3
tp1311
a(I437
I3
tp1312
a(I436
I3
tp1313
a(I266
I3
tp1314
a(I74
I3
tp1315
a(I1621
I2
tp1316
a(I1606
I2
tp1317
a(I1601
I2
tp1318
a(I1599
I2
tp1319
a(I1591
I2
tp1320
a(I1588
I2
tp1321
a(I1587
I2
tp1322
a(I1584
I2
tp1323
a(I1577
I2
tp1324
a(I1559
I2
tp1325
a(I1557
I2
tp1326
a(I1555
I2
tp1327
a(I1554
I2
tp1328
a(I1551
I2
tp1329
a(I1549
I2
tp1330
a(I1543
I2
tp1331
a(I1537
I2
tp1332
a(I1534
I2
tp1333
a(I1531
I2
tp1334
a(I1530
I2
tp1335
a(I1523
I2
tp1336
a(I1507
I2
tp1337
a(I1503
I2
tp1338
a(I1498
I2
tp1339
a(I1495
I2
tp1340
a(I1487
I2
tp1341
a(I1484
I2
tp1342
a(I1480
I2
tp1343
a(I1476
I2
tp1344
a(I1471
I2
tp1345
a(I1468
I2
tp1346
a(I1463
I2
tp1347
a(I1444
I2
tp1348
a(I1439
I2
tp1349
a(I1437
I2
tp1350
a(I1435
I2
tp1351
a(I1434
I2
tp1352
a(I1431
I2
tp1353
a(I1429
I2
tp1354
a(I1425
I2
tp1355
a(I1423
I2
tp1356
a(I1422
I2
tp1357
a(I1415
I2
tp1358
a(I1401
I2
tp1359
a(I1389
I2
tp1360
a(I1388
I2
tp1361
a(I1384
I2
tp1362
a(I1383
I2
tp1363
a(I1381
I2
tp1364
a(I1376
I2
tp1365
a(I1373
I2
tp1366
a(I1371
I2
tp1367
a(I1370
I2
tp1368
a(I1368
I2
tp1369
a(I1366
I2
tp1370
a(I1364
I2
tp1371
a(I1360
I2
tp1372
a(I1352
I2
tp1373
a(I1350
I2
tp1374
a(I1349
I2
tp1375
a(I1346
I2
tp1376
a(I1341
I2
tp1377
a(I1337
I2
tp1378
a(I1325
I2
tp1379
a(I1323
I2
tp1380
a(I1322
I2
tp1381
a(I1318
I2
tp1382
a(I1317
I2
tp1383
a(I1316
I2
tp1384
a(I1311
I2
tp1385
a(I1304
I2
tp1386
a(I1300
I2
tp1387
a(I1293
I2
tp1388
a(I1291
I2
tp1389
a(I1287
I2
tp1390
a(I1286
I2
tp1391
a(I1260
I2
tp1392
a(I1259
I2
tp1393
a(I1256
I2
tp1394
a(I1245
I2
tp1395
a(I1241
I2
tp1396
a(I1240
I2
tp1397
a(I1204
I2
tp1398
a(I1195
I2
tp1399
a(I1188
I2
tp1400
a(I1176
I2
tp1401
a(I1166
I2
tp1402
a(I1154
I2
tp1403
a(I1145
I2
tp1404
a(I1143
I2
tp1405
a(I1137
I2
tp1406
a(I1122
I2
tp1407
a(I1110
I2
tp1408
a(I1101
I2
tp1409
a(I1079
I2
tp1410
a(I1067
I2
tp1411
a(I1063
I2
tp1412
a(I1026
I2
tp1413
a(I993
I2
tp1414
a(I991
I2
tp1415
a(I956
I2
tp1416
a(I934
I2
tp1417
a(I926
I2
tp1418
a(I916
I2
tp1419
a(I909
I2
tp1420
a(I906
I2
tp1421
a(I883
I2
tp1422
a(I850
I2
tp1423
a(I837
I2
tp1424
a(I821
I2
tp1425
a(I776
I2
tp1426
a(I756
I2
tp1427
a(I705
I2
tp1428
a(I667
I2
tp1429
a(I441
I2
tp1430
a(I438
I2
tp1431
a(I295
I2
tp1432
a(I118
I2
tp1433
a(I1681
I1
tp1434
a(I1680
I1
tp1435
a(I1678
I1
tp1436
a(I1676
I1
tp1437
a(I1672
I1
tp1438
a(I1671
I1
tp1439
a(I1668
I1
tp1440
a(I1666
I1
tp1441
a(I1665
I1
tp1442
a(I1664
I1
tp1443
a(I1662
I1
tp1444
a(I1661
I1
tp1445
a(I1660
I1
tp1446
a(I1659
I1
tp1447
a(I1658
I1
tp1448
a(I1656
I1
tp1449
a(I1655
I1
tp1450
a(I1649
I1
tp1451
a(I1647
I1
tp1452
a(I1641
I1
tp1453
a(I1640
I1
tp1454
a(I1636
I1
tp1455
a(I1633
I1
tp1456
a(I1632
I1
tp1457
a(I1629
I1
tp1458
a(I1628
I1
tp1459
a(I1627
I1
tp1460
a(I1626
I1
tp1461
a(I1624
I1
tp1462
a(I1617
I1
tp1463
a(I1616
I1
tp1464
a(I1615
I1
tp1465
a(I1612
I1
tp1466
a(I1610
I1
tp1467
a(I1608
I1
tp1468
a(I1605
I1
tp1469
a(I1597
I1
tp1470
a(I1594
I1
tp1471
a(I1590
I1
tp1472
a(I1586
I1
tp1473
a(I1583
I1
tp1474
a(I1582
I1
tp1475
a(I1579
I1
tp1476
a(I1578
I1
tp1477
a(I1576
I1
tp1478
a(I1575
I1
tp1479
a(I1574
I1
tp1480
a(I1573
I1
tp1481
a(I1572
I1
tp1482
a(I1571
I1
tp1483
a(I1570
I1
tp1484
a(I1569
I1
tp1485
a(I1564
I1
tp1486
a(I1563
I1
tp1487
a(I1561
I1
tp1488
a(I1560
I1
tp1489
a(I1556
I1
tp1490
a(I1552
I1
tp1491
a(I1550
I1
tp1492
a(I1547
I1
tp1493
a(I1546
I1
tp1494
a(I1545
I1
tp1495
a(I1544
I1
tp1496
a(I1540
I1
tp1497
a(I1533
I1
tp1498
a(I1532
I1
tp1499
a(I1527
I1
tp1500
a(I1525
I1
tp1501
a(I1522
I1
tp1502
a(I1521
I1
tp1503
a(I1520
I1
tp1504
a(I1516
I1
tp1505
a(I1515
I1
tp1506
a(I1514
I1
tp1507
a(I1513
I1
tp1508
a(I1512
I1
tp1509
a(I1506
I1
tp1510
a(I1505
I1
tp1511
a(I1501
I1
tp1512
a(I1499
I1
tp1513
a(I1493
I1
tp1514
a(I1491
I1
tp1515
a(I1490
I1
tp1516
a(I1489
I1
tp1517
a(I1488
I1
tp1518
a(I1486
I1
tp1519
a(I1485
I1
tp1520
a(I1483
I1
tp1521
a(I1481
I1
tp1522
a(I1469
I1
tp1523
a(I1462
I1
tp1524
a(I1459
I1
tp1525
a(I1456
I1
tp1526
a(I1454
I1
tp1527
a(I1451
I1
tp1528
a(I1446
I1
tp1529
a(I1441
I1
tp1530
a(I1430
I1
tp1531
a(I1421
I1
tp1532
a(I1419
I1
tp1533
a(I1417
I1
tp1534
a(I1416
I1
tp1535
a(I1409
I1
tp1536
a(I1402
I1
tp1537
a(I1398
I1
tp1538
a(I1377
I1
tp1539
a(I1369
I1
tp1540
a(I1361
I1
tp1541
a(I1357
I1
tp1542
a(I1356
I1
tp1543
a(I1353
I1
tp1544
a(I1348
I1
tp1545
a(I1347
I1
tp1546
a(I1344
I1
tp1547
a(I1342
I1
tp1548
a(I1333
I1
tp1549
a(I1332
I1
tp1550
a(I1329
I1
tp1551
a(I1328
I1
tp1552
a(I1320
I1
tp1553
a(I1319
I1
tp1554
a(I1308
I1
tp1555
a(I1306
I1
tp1556
a(I1303
I1
tp1557
a(I1292
I1
tp1558
a(I1289
I1
tp1559
a(I1258
I1
tp1560
a(I1252
I1
tp1561
a(I1235
I1
tp1562
a(I1234
I1
tp1563
a(I1157
I1
tp1564
a(I1155
I1
tp1565
a(I1129
I1
tp1566
a(I1124
I1
tp1567
a(I1121
I1
tp1568
a(I1105
I1
tp1569
a(I1103
I1
tp1570
a(I1095
I1
tp1571
a(I1042
I1
tp1572
a(I986
I1
tp1573
a(I919
I1
tp1574
a(I912
I1
tp1575
a(I860
I1
tp1576
a(I857
I1
tp1577
a(I851
I1
tp1578
a(I838
I1
tp1579
a(I829
I1
tp1580
a(I813
I1
tp1581
a(I783
I1
tp1582
a(I710
I1
tp1583
a(I642
I1
tp1584
a(I599
I1
tp1585
a(I36
I1
tp1586
a(I1679
I0
tp1587
a(I1677
I0
tp1588
a(I1675
I0
tp1589
a(I1674
I0
tp1590
a(I1673
I0
tp1591
a(I1670
I0
tp1592
a(I1669
I0
tp1593
a(I1667
I0
tp1594
a(I1657
I0
tp1595
a(I1654
I0
tp1596
a(I1653
I0
tp1597
a(I1652
I0
tp1598
a(I1651
I0
tp1599
a(I1650
I0
tp1600
a(I1648
I0
tp1601
a(I1646
I0
tp1602
a(I1645
I0
tp1603
a(I1644
I0
tp1604
a(I1643
I0
tp1605
a(I1642
I0
tp1606
a(I1639
I0
tp1607
a(I1637
I0
tp1608
a(I1635
I0
tp1609
a(I1634
I0
tp1610
a(I1631
I0
tp1611
a(I1630
I0
tp1612
a(I1625
I0
tp1613
a(I1623
I0
tp1614
a(I1622
I0
tp1615
a(I1620
I0
tp1616
a(I1618
I0
tp1617
a(I1613
I0
tp1618
a(I1609
I0
tp1619
a(I1604
I0
tp1620
a(I1603
I0
tp1621
a(I1602
I0
tp1622
a(I1600
I0
tp1623
a(I1598
I0
tp1624
a(I1595
I0
tp1625
a(I1593
I0
tp1626
a(I1592
I0
tp1627
a(I1589
I0
tp1628
a(I1585
I0
tp1629
a(I1581
I0
tp1630
a(I1580
I0
tp1631
a(I1568
I0
tp1632
a(I1567
I0
tp1633
a(I1566
I0
tp1634
a(I1565
I0
tp1635
a(I1562
I0
tp1636
a(I1558
I0
tp1637
a(I1553
I0
tp1638
a(I1548
I0
tp1639
a(I1542
I0
tp1640
a(I1541
I0
tp1641
a(I1535
I0
tp1642
a(I1524
I0
tp1643
a(I1519
I0
tp1644
a(I1518
I0
tp1645
a(I1509
I0
tp1646
a(I1504
I0
tp1647
a(I1497
I0
tp1648
a(I1496
I0
tp1649
a(I1492
I0
tp1650
a(I1475
I0
tp1651
a(I1466
I0
tp1652
a(I1464
I0
tp1653
a(I1460
I0
tp1654
a(I1457
I0
tp1655
a(I1452
I0
tp1656
a(I1449
I0
tp1657
a(I1447
I0
tp1658
a(I1432
I0
tp1659
a(I1426
I0
tp1660
a(I1413
I0
tp1661
a(I1397
I0
tp1662
a(I1386
I0
tp1663
a(I1372
I0
tp1664
a(I1365
I0
tp1665
a(I1363
I0
tp1666
a(I1362
I0
tp1667
a(I1359
I0
tp1668
a(I1358
I0
tp1669
a(I1355
I0
tp1670
a(I1351
I0
tp1671
a(I1340
I0
tp1672
a(I1339
I0
tp1673
a(I1338
I0
tp1674
a(I1331
I0
tp1675
a(I1326
I0
tp1676
a(I1324
I0
tp1677
a(I1309
I0
tp1678
a(I1307
I0
tp1679
a(I1305
I0
tp1680
a(I1269
I0
tp1681
a(I1255
I0
tp1682
a(I1200
I0
tp1683
a(I1185
I0
tp1684
a(I896
I0
tp1685
a(I856
I0
tp1686
a(I676
I0
tp1687
a(I598
I0
tp1688
a(I597
I0
tp1689
asS'thresh'
p1690
I0
sS'description'
p1691
S'ItemPop'
p1692
sS'method'
p1693
S'count'
p1694
sb.