ccopy_reg
_reconstructor
p1
(cmrec.popularity
ItemPopularityRecommender
p2
c__builtin__
object
p3
NtRp4
(dp5
S'pop_items'
p6
(lp7
(I49
I287
tp8
a(I257
I261
tp9
a(I293
I251
tp10
a(I180
I239
tp11
a(I0
I235
tp12
a(I285
I232
tp13
a(I99
I229
tp14
a(I287
I227
tp15
a(I299
I214
tp16
a(I126
I204
tp17
a(I173
I201
tp18
a(I120
I198
tp19
a(I97
I196
tp20
a(I55
I191
tp21
a(I6
I187
tp22
a(I404
I185
tp23
a(I312
I183
tp24
a(I116
I183
tp25
a(I236
I182
tp26
a(I747
I173
tp27
a(I221
I170
tp28
a(I203
I168
tp29
a(I171
I167
tp30
a(I172
I166
tp31
a(I209
I162
tp32
a(I117
I162
tp33
a(I167
I161
tp34
a(I95
I161
tp35
a(I68
I159
tp36
a(I275
I158
tp37
a(I182
I157
tp38
a(I215
I155
tp39
a(I268
I153
tp40
a(I301
I152
tp41
a(I21
I151
tp42
a(I11
I150
tp43
a(I175
I149
tp44
a(I8
I149
tp45
a(I14
I147
tp46
a(I78
I146
tp47
a(I110
I145
tp48
a(I201
I144
tp49
a(I422
I143
tp50
a(I317
I143
tp51
a(I150
I143
tp52
a(I256
I142
tp53
a(I63
I142
tp54
a(I24
I141
tp55
a(I327
I140
tp56
a(I194
I140
tp57
a(I190
I140
tp58
a(I27
I140
tp59
a(I237
I136
tp60
a(I267
I135
tp61
a(I233
I135
tp62
a(I96
I135
tp63
a(I88
I135
tp64
a(I322
I134
tp65
a(I134
I134
tp66
a(I274
I131
tp67
a(I185
I130
tp68
a(I332
I127
tp69
a(I184
I127
tp70
a(I356
I126
tp71
a(I272
I126
tp72
a(I741
I125
tp73
a(I495
I124
tp74
a(I567
I123
tp75
a(I131
I123
tp76
a(I195
I122
tp77
a(I142
I122
tp78
a(I474
I120
tp79
a(I193
I120
tp80
a(I81
I120
tp81
a(I545
I119
tp82
a(I227
I119
tp83
a(I677
I118
tp84
a(I196
I118
tp85
a(I143
I118
tp86
a(I124
I118
tp87
a(I152
I117
tp88
a(I94
I117
tp89
a(I654
I116
tp90
a(I587
I116
tp91
a(I507
I116
tp92
a(I244
I116
tp93
a(I69
I116
tp94
a(I300
I115
tp95
a(I234
I115
tp96
a(I288
I114
tp97
a(I264
I114
tp98
a(I181
I113
tp99
a(I10
I112
tp100
a(I384
I111
tp101
a(I602
I110
tp102
a(I482
I110
tp103
a(I207
I110
tp104
a(I87
I110
tp105
a(I473
I109
tp106
a(I178
I107
tp107
a(I596
I106
tp108
a(I470
I106
tp109
a(I426
I106
tp110
a(I281
I105
tp111
a(I3
I105
tp112
a(I210
I103
tp113
a(I526
I102
tp114
a(I271
I102
tp115
a(I179
I102
tp116
a(I7
I102
tp117
a(I513
I100
tp118
a(I70
I100
tp119
a(I320
I99
tp120
a(I208
I99
tp121
a(I22
I99
tp122
a(I321
I98
tp123
a(I270
I98
tp124
a(I249
I98
tp125
a(I133
I98
tp126
a(I160
I97
tp127
a(I98
I97
tp128
a(I392
I96
tp129
a(I339
I96
tp130
a(I174
I96
tp131
a(I750
I95
tp132
a(I590
I95
tp133
a(I297
I95
tp134
a(I199
I95
tp135
a(I514
I94
tp136
a(I283
I94
tp137
a(I402
I93
tp138
a(I731
I92
tp139
a(I229
I92
tp140
a(I146
I92
tp141
a(I136
I92
tp142
a(I132
I92
tp143
a(I479
I91
tp144
a(I434
I91
tp145
a(I214
I91
tp146
a(I202
I91
tp147
a(I123
I91
tp148
a(I581
I90
tp149
a(I565
I90
tp150
a(I510
I90
tp151
a(I325
I90
tp152
a(I273
I90
tp153
a(I254
I90
tp154
a(I186
I90
tp155
a(I627
I88
tp156
a(I478
I88
tp157
a(I418
I88
tp158
a(I284
I88
tp159
a(I82
I88
tp160
a(I57
I88
tp161
a(I409
I86
tp162
a(I401
I86
tp163
a(I198
I86
tp164
a(I13
I86
tp165
a(I844
I85
tp166
a(I738
I85
tp167
a(I318
I85
tp168
a(I306
I85
tp169
a(I228
I85
tp170
a(I282
I84
tp171
a(I280
I84
tp172
a(I251
I84
tp173
a(I683
I83
tp174
a(I454
I83
tp175
a(I366
I83
tp176
a(I326
I83
tp177
a(I689
I82
tp178
a(I650
I82
tp179
a(I450
I82
tp180
a(I314
I82
tp181
a(I225
I82
tp182
a(I217
I82
tp183
a(I12
I82
tp184
a(I691
I81
tp185
a(I155
I81
tp186
a(I549
I80
tp187
a(I442
I80
tp188
a(I247
I80
tp189
a(I23
I80
tp190
a(I432
I79
tp191
a(I431
I79
tp192
a(I93
I79
tp193
a(I41
I79
tp194
a(I659
I77
tp195
a(I430
I77
tp196
a(I238
I77
tp197
a(I653
I76
tp198
a(I522
I76
tp199
a(I484
I76
tp200
a(I90
I76
tp201
a(I357
I75
tp202
a(I176
I75
tp203
a(I153
I75
tp204
a(I684
I74
tp205
a(I258
I74
tp206
a(I85
I74
tp207
a(I54
I74
tp208
a(I30
I74
tp209
a(I303
I73
tp210
a(I226
I73
tp211
a(I86
I73
tp212
a(I65
I73
tp213
a(I558
I72
tp214
a(I475
I72
tp215
a(I461
I72
tp216
a(I187
I72
tp217
a(I71
I72
tp218
a(I1046
I71
tp219
a(I734
I71
tp220
a(I410
I71
tp221
a(I192
I71
tp222
a(I163
I71
tp223
a(I149
I71
tp224
a(I76
I71
tp225
a(I1015
I70
tp226
a(I878
I70
tp227
a(I471
I70
tp228
a(I230
I70
tp229
a(I704
I69
tp230
a(I630
I69
tp231
a(I52
I69
tp232
a(I346
I68
tp233
a(I239
I68
tp234
a(I204
I68
tp235
a(I309
I67
tp236
a(I302
I67
tp237
a(I242
I67
tp238
a(I1027
I66
tp239
a(I656
I66
tp240
a(I483
I66
tp241
a(I212
I66
tp242
a(I197
I66
tp243
a(I191
I66
tp244
a(I128
I66
tp245
a(I503
I65
tp246
a(I500
I65
tp247
a(I342
I65
tp248
a(I331
I65
tp249
a(I324
I65
tp250
a(I46
I65
tp251
a(I762
I64
tp252
a(I497
I64
tp253
a(I417
I64
tp254
a(I290
I64
tp255
a(I183
I64
tp256
a(I156
I64
tp257
a(I527
I63
tp258
a(I509
I63
tp259
a(I481
I63
tp260
a(I345
I63
tp261
a(I292
I63
tp262
a(I222
I63
tp263
a(I147
I63
tp264
a(I72
I63
tp265
a(I530
I62
tp266
a(I1
I62
tp267
a(I749
I61
tp268
a(I323
I61
tp269
a(I269
I61
tp270
a(I245
I61
tp271
a(I232
I61
tp272
a(I47
I61
tp273
a(I761
I60
tp274
a(I755
I60
tp275
a(I520
I60
tp276
a(I448
I60
tp277
a(I427
I60
tp278
a(I407
I60
tp279
a(I662
I59
tp280
a(I472
I59
tp281
a(I177
I59
tp282
a(I169
I59
tp283
a(I115
I59
tp284
a(I37
I59
tp285
a(I814
I58
tp286
a(I519
I58
tp287
a(I377
I58
tp288
a(I248
I58
tp289
a(I216
I58
tp290
a(I745
I57
tp291
a(I595
I57
tp292
a(I525
I57
tp293
a(I508
I57
tp294
a(I420
I57
tp295
a(I330
I57
tp296
a(I316
I57
tp297
a(I240
I57
tp298
a(I218
I57
tp299
a(I213
I57
tp300
a(I189
I57
tp301
a(I61
I57
tp302
a(I28
I57
tp303
a(I575
I56
tp304
a(I446
I56
tp305
a(I435
I56
tp306
a(I381
I56
tp307
a(I122
I56
tp308
a(I108
I56
tp309
a(I66
I56
tp310
a(I64
I56
tp311
a(I355
I55
tp312
a(I259
I55
tp313
a(I168
I55
tp314
a(I672
I54
tp315
a(I379
I54
tp316
a(I241
I54
tp317
a(I925
I53
tp318
a(I698
I53
tp319
a(I469
I53
tp320
a(I231
I53
tp321
a(I121
I53
tp322
a(I91
I53
tp323
a(I80
I53
tp324
a(I894
I52
tp325
a(I743
I52
tp326
a(I681
I52
tp327
a(I528
I52
tp328
a(I506
I52
tp329
a(I464
I52
tp330
a(I158
I52
tp331
a(I865
I51
tp332
a(I53
I51
tp333
a(I927
I50
tp334
a(I746
I50
tp335
a(I678
I50
tp336
a(I577
I50
tp337
a(I477
I50
tp338
a(I403
I50
tp339
a(I385
I50
tp340
a(I380
I50
tp341
a(I291
I50
tp342
a(I263
I50
tp343
a(I224
I50
tp344
a(I135
I50
tp345
a(I92
I50
tp346
a(I67
I50
tp347
a(I1011
I49
tp348
a(I1010
I49
tp349
a(I923
I49
tp350
a(I918
I49
tp351
a(I315
I49
tp352
a(I161
I49
tp353
a(I125
I49
tp354
a(I9
I49
tp355
a(I2
I49
tp356
a(I658
I48
tp357
a(I419
I48
tp358
a(I1038
I47
tp359
a(I819
I47
tp360
a(I553
I47
tp361
a(I548
I47
tp362
a(I518
I47
tp363
a(I505
I47
tp364
a(I476
I47
tp365
a(I398
I47
tp366
a(I51
I47
tp367
a(I987
I46
tp368
a(I830
I46
tp369
a(I428
I46
tp370
a(I154
I46
tp371
a(I32
I46
tp372
a(I854
I45
tp373
a(I780
I45
tp374
a(I714
I45
tp375
a(I708
I45
tp376
a(I688
I45
tp377
a(I660
I45
tp378
a(I651
I45
tp379
a(I606
I45
tp380
a(I516
I45
tp381
a(I447
I45
tp382
a(I286
I45
tp383
a(I89
I45
tp384
a(I824
I44
tp385
a(I517
I44
tp386
a(I289
I44
tp387
a(I200
I44
tp388
a(I50
I44
tp389
a(I16
I44
tp390
a(I968
I43
tp391
a(I825
I43
tp392
a(I791
I43
tp393
a(I639
I43
tp394
a(I635
I43
tp395
a(I603
I43
tp396
a(I337
I43
tp397
a(I151
I43
tp398
a(I130
I43
tp399
a(I1013
I42
tp400
a(I822
I42
tp401
a(I692
I42
tp402
a(I664
I42
tp403
a(I457
I42
tp404
a(I449
I42
tp405
a(I140
I42
tp406
a(I105
I42
tp407
a(I58
I42
tp408
a(I43
I42
tp409
a(I20
I42
tp410
a(I777
I41
tp411
a(I754
I41
tp412
a(I723
I41
tp413
a(I716
I41
tp414
a(I709
I41
tp415
a(I641
I41
tp416
a(I583
I41
tp417
a(I411
I41
tp418
a(I305
I41
tp419
a(I304
I41
tp420
a(I279
I41
tp421
a(I211
I41
tp422
a(I206
I41
tp423
a(I162
I41
tp424
a(I62
I41
tp425
a(I429
I40
tp426
a(I424
I40
tp427
a(I38
I40
tp428
a(I31
I40
tp429
a(I4
I40
tp430
a(I628
I39
tp431
a(I460
I39
tp432
a(I48
I39
tp433
a(I930
I38
tp434
a(I929
I38
tp435
a(I726
I38
tp436
a(I624
I38
tp437
a(I451
I38
tp438
a(I416
I38
tp439
a(I400
I38
tp440
a(I44
I38
tp441
a(I25
I38
tp442
a(I19
I38
tp443
a(I707
I37
tp444
a(I686
I37
tp445
a(I661
I37
tp446
a(I557
I37
tp447
a(I490
I37
tp448
a(I462
I37
tp449
a(I353
I37
tp450
a(I310
I37
tp451
a(I104
I37
tp452
a(I1118
I36
tp453
a(I1047
I36
tp454
a(I1034
I36
tp455
a(I933
I36
tp456
a(I872
I36
tp457
a(I870
I36
tp458
a(I632
I36
tp459
a(I580
I36
tp460
a(I529
I36
tp461
a(I383
I36
tp462
a(I370
I36
tp463
a(I113
I36
tp464
a(I1073
I35
tp465
a(I779
I35
tp466
a(I728
I35
tp467
a(I675
I35
tp468
a(I649
I35
tp469
a(I543
I35
tp470
a(I496
I35
tp471
a(I166
I35
tp472
a(I119
I35
tp473
a(I59
I35
tp474
a(I992
I34
tp475
a(I789
I34
tp476
a(I767
I34
tp477
a(I740
I34
tp478
a(I706
I34
tp479
a(I594
I34
tp480
a(I391
I34
tp481
a(I188
I34
tp482
a(I170
I34
tp483
a(I144
I34
tp484
a(I79
I34
tp485
a(I863
I33
tp486
a(I735
I33
tp487
a(I695
I33
tp488
a(I631
I33
tp489
a(I626
I33
tp490
a(I615
I33
tp491
a(I512
I33
tp492
a(I480
I33
tp493
a(I433
I33
tp494
a(I219
I33
tp495
a(I159
I33
tp496
a(I139
I33
tp497
a(I18
I33
tp498
a(I879
I32
tp499
a(I848
I32
tp500
a(I846
I32
tp501
a(I720
I32
tp502
a(I605
I32
tp503
a(I515
I32
tp504
a(I493
I32
tp505
a(I468
I32
tp506
a(I467
I32
tp507
a(I298
I32
tp508
a(I253
I32
tp509
a(I157
I32
tp510
a(I141
I32
tp511
a(I1064
I31
tp512
a(I1008
I31
tp513
a(I945
I31
tp514
a(I938
I31
tp515
a(I719
I31
tp516
a(I568
I31
tp517
a(I524
I31
tp518
a(I498
I31
tp519
a(I494
I31
tp520
a(I465
I31
tp521
a(I415
I31
tp522
a(I408
I31
tp523
a(I220
I31
tp524
a(I60
I31
tp525
a(I39
I31
tp526
a(I1100
I30
tp527
a(I1072
I30
tp528
a(I948
I30
tp529
a(I922
I30
tp530
a(I823
I30
tp531
a(I736
I30
tp532
a(I721
I30
tp533
a(I712
I30
tp534
a(I671
I30
tp535
a(I541
I30
tp536
a(I511
I30
tp537
a(I486
I30
tp538
a(I485
I30
tp539
a(I413
I30
tp540
a(I344
I30
tp541
a(I333
I30
tp542
a(I276
I30
tp543
a(I261
I30
tp544
a(I1040
I29
tp545
a(I958
I29
tp546
a(I826
I29
tp547
a(I753
I29
tp548
a(I701
I29
tp549
a(I657
I29
tp550
a(I648
I29
tp551
a(I646
I29
tp552
a(I561
I29
tp553
a(I560
I29
tp554
a(I552
I29
tp555
a(I534
I29
tp556
a(I412
I29
tp557
a(I394
I29
tp558
a(I390
I29
tp559
a(I365
I29
tp560
a(I364
I29
tp561
a(I311
I29
tp562
a(I294
I29
tp563
a(I127
I29
tp564
a(I1196
I28
tp565
a(I962
I28
tp566
a(I715
I28
tp567
a(I440
I28
tp568
a(I362
I28
tp569
a(I107
I28
tp570
a(I1141
I27
tp571
a(I1016
I27
tp572
a(I920
I27
tp573
a(I886
I27
tp574
a(I759
I27
tp575
a(I608
I27
tp576
a(I504
I27
tp577
a(I488
I27
tp578
a(I405
I27
tp579
a(I386
I27
tp580
a(I100
I27
tp581
a(I84
I27
tp582
a(I75
I27
tp583
a(I26
I27
tp584
a(I955
I26
tp585
a(I891
I26
tp586
a(I845
I26
tp587
a(I832
I26
tp588
a(I739
I26
tp589
a(I673
I26
tp590
a(I614
I26
tp591
a(I492
I26
tp592
a(I378
I26
tp593
a(I368
I26
tp594
a(I343
I26
tp595
a(I277
I26
tp596
a(I165
I26
tp597
a(I164
I26
tp598
a(I1049
I25
tp599
a(I954
I25
tp600
a(I947
I25
tp601
a(I889
I25
tp602
a(I885
I25
tp603
a(I874
I25
tp604
a(I812
I25
tp605
a(I760
I25
tp606
a(I693
I25
tp607
a(I685
I25
tp608
a(I613
I25
tp609
a(I537
I25
tp610
a(I329
I25
tp611
a(I205
I25
tp612
a(I138
I25
tp613
a(I1089
I24
tp614
a(I1009
I24
tp615
a(I1006
I24
tp616
a(I839
I24
tp617
a(I801
I24
tp618
a(I793
I24
tp619
a(I769
I24
tp620
a(I727
I24
tp621
a(I696
I24
tp622
a(I674
I24
tp623
a(I647
I24
tp624
a(I619
I24
tp625
a(I618
I24
tp626
a(I601
I24
tp627
a(I584
I24
tp628
a(I551
I24
tp629
a(I536
I24
tp630
a(I523
I24
tp631
a(I501
I24
tp632
a(I487
I24
tp633
a(I335
I24
tp634
a(I101
I24
tp635
a(I1227
I23
tp636
a(I1134
I23
tp637
a(I1066
I23
tp638
a(I1062
I23
tp639
a(I931
I23
tp640
a(I897
I23
tp641
a(I873
I23
tp642
a(I871
I23
tp643
a(I773
I23
tp644
a(I751
I23
tp645
a(I748
I23
tp646
a(I730
I23
tp647
a(I670
I23
tp648
a(I609
I23
tp649
a(I489
I23
tp650
a(I349
I23
tp651
a(I106
I23
tp652
a(I1187
I22
tp653
a(I1058
I22
tp654
a(I983
I22
tp655
a(I940
I22
tp656
a(I921
I22
tp657
a(I655
I22
tp658
a(I640
I22
tp659
a(I569
I22
tp660
a(I521
I22
tp661
a(I466
I22
tp662
a(I354
I22
tp663
a(I341
I22
tp664
a(I243
I22
tp665
a(I1216
I21
tp666
a(I1117
I21
tp667
a(I1059
I21
tp668
a(I976
I21
tp669
a(I880
I21
tp670
a(I876
I21
tp671
a(I843
I21
tp672
a(I788
I21
tp673
a(I687
I21
tp674
a(I585
I21
tp675
a(I574
I21
tp676
a(I540
I21
tp677
a(I455
I21
tp678
a(I338
I21
tp679
a(I328
I21
tp680
a(I235
I21
tp681
a(I223
I21
tp682
a(I1243
I20
tp683
a(I1108
I20
tp684
a(I1090
I20
tp685
a(I1045
I20
tp686
a(I1043
I20
tp687
a(I1021
I20
tp688
a(I1020
I20
tp689
a(I978
I20
tp690
a(I950
I20
tp691
a(I949
I20
tp692
a(I943
I20
tp693
a(I939
I20
tp694
a(I936
I20
tp695
a(I901
I20
tp696
a(I899
I20
tp697
a(I895
I20
tp698
a(I881
I20
tp699
a(I805
I20
tp700
a(I784
I20
tp701
a(I770
I20
tp702
a(I645
I20
tp703
a(I637
I20
tp704
a(I621
I20
tp705
a(I582
I20
tp706
a(I576
I20
tp707
a(I546
I20
tp708
a(I491
I20
tp709
a(I395
I20
tp710
a(I296
I20
tp711
a(I250
I20
tp712
a(I56
I20
tp713
a(I42
I20
tp714
a(I29
I20
tp715
a(I15
I20
tp716
a(I1209
I19
tp717
a(I1169
I19
tp718
a(I1151
I19
tp719
a(I1133
I19
tp720
a(I1114
I19
tp721
a(I1078
I19
tp722
a(I1050
I19
tp723
a(I989
I19
tp724
a(I974
I19
tp725
a(I961
I19
tp726
a(I942
I19
tp727
a(I924
I19
tp728
a(I782
I19
tp729
a(I771
I19
tp730
a(I763
I19
tp731
a(I711
I19
tp732
a(I682
I19
tp733
a(I622
I19
tp734
a(I610
I19
tp735
a(I538
I19
tp736
a(I406
I19
tp737
a(I369
I19
tp738
a(I260
I19
tp739
a(I1132
I18
tp740
a(I1024
I18
tp741
a(I1019
I18
tp742
a(I959
I18
tp743
a(I928
I18
tp744
a(I842
I18
tp745
a(I840
I18
tp746
a(I828
I18
tp747
a(I818
I18
tp748
a(I808
I18
tp749
a(I742
I18
tp750
a(I737
I18
tp751
a(I663
I18
tp752
a(I643
I18
tp753
a(I638
I18
tp754
a(I539
I18
tp755
a(I443
I18
tp756
a(I425
I18
tp757
a(I1220
I17
tp758
a(I1097
I17
tp759
a(I970
I17
tp760
a(I944
I17
tp761
a(I855
I17
tp762
a(I795
I17
tp763
a(I778
I17
tp764
a(I733
I17
tp765
a(I669
I17
tp766
a(I612
I17
tp767
a(I604
I17
tp768
a(I588
I17
tp769
a(I566
I17
tp770
a(I562
I17
tp771
a(I502
I17
tp772
a(I382
I17
tp773
a(I371
I17
tp774
a(I40
I17
tp775
a(I1193
I16
tp776
a(I1138
I16
tp777
a(I1131
I16
tp778
a(I1125
I16
tp779
a(I1088
I16
tp780
a(I1032
I16
tp781
a(I1018
I16
tp782
a(I977
I16
tp783
a(I941
I16
tp784
a(I875
I16
tp785
a(I833
I16
tp786
a(I807
I16
tp787
a(I679
I16
tp788
a(I636
I16
tp789
a(I375
I16
tp790
a(I367
I16
tp791
a(I363
I16
tp792
a(I265
I16
tp793
a(I45
I16
tp794
a(I1225
I15
tp795
a(I1219
I15
tp796
a(I1214
I15
tp797
a(I1156
I15
tp798
a(I1109
I15
tp799
a(I1039
I15
tp800
a(I994
I15
tp801
a(I988
I15
tp802
a(I952
I15
tp803
a(I932
I15
tp804
a(I835
I15
tp805
a(I809
I15
tp806
a(I796
I15
tp807
a(I764
I15
tp808
a(I718
I15
tp809
a(I703
I15
tp810
a(I633
I15
tp811
a(I629
I15
tp812
a(I571
I15
tp813
a(I499
I15
tp814
a(I459
I15
tp815
a(I458
I15
tp816
a(I387
I15
tp817
a(I336
I15
tp818
a(I5
I15
tp819
a(I1239
I14
tp820
a(I1159
I14
tp821
a(I1060
I14
tp822
a(I1056
I14
tp823
a(I1044
I14
tp824
a(I1007
I14
tp825
a(I971
I14
tp826
a(I965
I14
tp827
a(I960
I14
tp828
a(I951
I14
tp829
a(I935
I14
tp830
a(I904
I14
tp831
a(I817
I14
tp832
a(I729
I14
tp833
a(I644
I14
tp834
a(I607
I14
tp835
a(I572
I14
tp836
a(I463
I14
tp837
a(I421
I14
tp838
a(I372
I14
tp839
a(I361
I14
tp840
a(I109
I14
tp841
a(I77
I14
tp842
a(I1266
I13
tp843
a(I1257
I13
tp844
a(I1230
I13
tp845
a(I1221
I13
tp846
a(I1205
I13
tp847
a(I1184
I13
tp848
a(I1182
I13
tp849
a(I1136
I13
tp850
a(I1135
I13
tp851
a(I1094
I13
tp852
a(I1048
I13
tp853
a(I1036
I13
tp854
a(I1033
I13
tp855
a(I1022
I13
tp856
a(I990
I13
tp857
a(I985
I13
tp858
a(I984
I13
tp859
a(I905
I13
tp860
a(I877
I13
tp861
a(I804
I13
tp862
a(I774
I13
tp863
a(I768
I13
tp864
a(I757
I13
tp865
a(I652
I13
tp866
a(I634
I13
tp867
a(I611
I13
tp868
a(I600
I13
tp869
a(I456
I13
tp870
a(I414
I13
tp871
a(I351
I13
tp872
a(I347
I13
tp873
a(I308
I13
tp874
a(I1477
I12
tp875
a(I1410
I12
tp876
a(I1282
I12
tp877
a(I1264
I12
tp878
a(I1247
I12
tp879
a(I1198
I12
tp880
a(I1162
I12
tp881
a(I1148
I12
tp882
a(I1085
I12
tp883
a(I1041
I12
tp884
a(I1012
I12
tp885
a(I996
I12
tp886
a(I868
I12
tp887
a(I862
I12
tp888
a(I841
I12
tp889
a(I811
I12
tp890
a(I722
I12
tp891
a(I579
I12
tp892
a(I564
I12
tp893
a(I531
I12
tp894
a(I453
I12
tp895
a(I307
I12
tp896
a(I1406
I11
tp897
a(I1400
I11
tp898
a(I1295
I11
tp899
a(I1238
I11
tp900
a(I1217
I11
tp901
a(I1202
I11
tp902
a(I1177
I11
tp903
a(I1146
I11
tp904
a(I1112
I11
tp905
a(I1102
I11
tp906
a(I1052
I11
tp907
a(I1029
I11
tp908
a(I1017
I11
tp909
a(I981
I11
tp910
a(I973
I11
tp911
a(I964
I11
tp912
a(I888
I11
tp913
a(I836
I11
tp914
a(I820
I11
tp915
a(I810
I11
tp916
a(I794
I11
tp917
a(I752
I11
tp918
a(I724
I11
tp919
a(I617
I11
tp920
a(I573
I11
tp921
a(I563
I11
tp922
a(I556
I11
tp923
a(I334
I11
tp924
a(I1443
I10
tp925
a(I1314
I10
tp926
a(I1302
I10
tp927
a(I1284
I10
tp928
a(I1265
I10
tp929
a(I1218
I10
tp930
a(I1207
I10
tp931
a(I1203
I10
tp932
a(I1152
I10
tp933
a(I1128
I10
tp934
a(I1127
I10
tp935
a(I1116
I10
tp936
a(I1070
I10
tp937
a(I1053
I10
tp938
a(I1023
I10
tp939
a(I1004
I10
tp940
a(I997
I10
tp941
a(I979
I10
tp942
a(I946
I10
tp943
a(I937
I10
tp944
a(I831
I10
tp945
a(I827
I10
tp946
a(I800
I10
tp947
a(I772
I10
tp948
a(I559
I10
tp949
a(I423
I10
tp950
a(I374
I10
tp951
a(I348
I10
tp952
a(I148
I10
tp953
a(I114
I10
tp954
a(I83
I10
tp955
a(I1517
I9
tp956
a(I1450
I9
tp957
a(I1445
I9
tp958
a(I1334
I9
tp959
a(I1276
I9
tp960
a(I1231
I9
tp961
a(I1206
I9
tp962
a(I1179
I9
tp963
a(I1175
I9
tp964
a(I1171
I9
tp965
a(I1111
I9
tp966
a(I1096
I9
tp967
a(I1092
I9
tp968
a(I1068
I9
tp969
a(I1057
I9
tp970
a(I1051
I9
tp971
a(I902
I9
tp972
a(I861
I9
tp973
a(I799
I9
tp974
a(I732
I9
tp975
a(I666
I9
tp976
a(I623
I9
tp977
a(I550
I9
tp978
a(I439
I9
tp979
a(I137
I9
tp980
a(I1420
I8
tp981
a(I1418
I8
tp982
a(I1312
I8
tp983
a(I1310
I8
tp984
a(I1283
I8
tp985
a(I1280
I8
tp986
a(I1277
I8
tp987
a(I1262
I8
tp988
a(I1229
I8
tp989
a(I1228
I8
tp990
a(I1210
I8
tp991
a(I1165
I8
tp992
a(I1120
I8
tp993
a(I1077
I8
tp994
a(I1069
I8
tp995
a(I1035
I8
tp996
a(I995
I8
tp997
a(I982
I8
tp998
a(I967
I8
tp999
a(I903
I8
tp1000
a(I892
I8
tp1001
a(I882
I8
tp1002
a(I853
I8
tp1003
a(I852
I8
tp1004
a(I758
I8
tp1005
a(I725
I8
tp1006
a(I713
I8
tp1007
a(I702
I8
tp1008
a(I680
I8
tp1009
a(I578
I8
tp1010
a(I555
I8
tp1011
a(I532
I8
tp1012
a(I452
I8
tp1013
a(I397
I8
tp1014
a(I376
I8
tp1015
a(I358
I8
tp1016
a(I278
I8
tp1017
a(I255
I8
tp1018
a(I252
I8
tp1019
a(I129
I8
tp1020
a(I1539
I7
tp1021
a(I1502
I7
tp1022
a(I1468
I7
tp1023
a(I1427
I7
tp1024
a(I1298
I7
tp1025
a(I1290
I7
tp1026
a(I1285
I7
tp1027
a(I1279
I7
tp1028
a(I1273
I7
tp1029
a(I1272
I7
tp1030
a(I1253
I7
tp1031
a(I1244
I7
tp1032
a(I1223
I7
tp1033
a(I1192
I7
tp1034
a(I1181
I7
tp1035
a(I1167
I7
tp1036
a(I1149
I7
tp1037
a(I1142
I7
tp1038
a(I1123
I7
tp1039
a(I1119
I7
tp1040
a(I1104
I7
tp1041
a(I1093
I7
tp1042
a(I1084
I7
tp1043
a(I1083
I7
tp1044
a(I1055
I7
tp1045
a(I1037
I7
tp1046
a(I1005
I7
tp1047
a(I969
I7
tp1048
a(I966
I7
tp1049
a(I957
I7
tp1050
a(I914
I7
tp1051
a(I908
I7
tp1052
a(I893
I7
tp1053
a(I864
I7
tp1054
a(I858
I7
tp1055
a(I815
I7
tp1056
a(I700
I7
tp1057
a(I690
I7
tp1058
a(I592
I7
tp1059
a(I586
I7
tp1060
a(I542
I7
tp1061
a(I444
I7
tp1062
a(I352
I7
tp1063
a(I350
I7
tp1064
a(I319
I7
tp1065
a(I111
I7
tp1066
a(I102
I7
tp1067
a(I35
I7
tp1068
a(I1478
I6
tp1069
a(I1472
I6
tp1070
a(I1470
I6
tp1071
a(I1438
I6
tp1072
a(I1433
I6
tp1073
a(I1393
I6
tp1074
a(I1335
I6
tp1075
a(I1267
I6
tp1076
a(I1233
I6
tp1077
a(I1213
I6
tp1078
a(I1208
I6
tp1079
a(I1194
I6
tp1080
a(I1180
I6
tp1081
a(I1178
I6
tp1082
a(I1168
I6
tp1083
a(I1164
I6
tp1084
a(I1160
I6
tp1085
a(I1158
I6
tp1086
a(I1130
I6
tp1087
a(I1115
I6
tp1088
a(I1106
I6
tp1089
a(I1091
I6
tp1090
a(I1087
I6
tp1091
a(I1086
I6
tp1092
a(I1061
I6
tp1093
a(I1000
I6
tp1094
a(I999
I6
tp1095
a(I975
I6
tp1096
a(I911
I6
tp1097
a(I898
I6
tp1098
a(I887
I6
tp1099
a(I869
I6
tp1100
a(I859
I6
tp1101
a(I834
I6
tp1102
a(I802
I6
tp1103
a(I786
I6
tp1104
a(I697
I6
tp1105
a(I694
I6
tp1106
a(I620
I6
tp1107
a(I589
I6
tp1108
a(I570
I6
tp1109
a(I445
I6
tp1110
a(I399
I6
tp1111
a(I393
I6
tp1112
a(I388
I6
tp1113
a(I359
I6
tp1114
a(I266
I6
tp1115
a(I1619
I5
tp1116
a(I1614
I5
tp1117
a(I1557
I5
tp1118
a(I1526
I5
tp1119
a(I1479
I5
tp1120
a(I1465
I5
tp1121
a(I1461
I5
tp1122
a(I1458
I5
tp1123
a(I1448
I5
tp1124
a(I1437
I5
tp1125
a(I1436
I5
tp1126
a(I1434
I5
tp1127
a(I1412
I5
tp1128
a(I1399
I5
tp1129
a(I1398
I5
tp1130
a(I1392
I5
tp1131
a(I1354
I5
tp1132
a(I1336
I5
tp1133
a(I1313
I5
tp1134
a(I1304
I5
tp1135
a(I1297
I5
tp1136
a(I1287
I5
tp1137
a(I1269
I5
tp1138
a(I1252
I5
tp1139
a(I1237
I5
tp1140
a(I1201
I5
tp1141
a(I1199
I5
tp1142
a(I1191
I5
tp1143
a(I1186
I5
tp1144
a(I1170
I5
tp1145
a(I1144
I5
tp1146
a(I1139
I5
tp1147
a(I1113
I5
tp1148
a(I1098
I5
tp1149
a(I1081
I5
tp1150
a(I1071
I5
tp1151
a(I1067
I5
tp1152
a(I1031
I5
tp1153
a(I1014
I5
tp1154
a(I998
I5
tp1155
a(I915
I5
tp1156
a(I907
I5
tp1157
a(I847
I5
tp1158
a(I790
I5
tp1159
a(I766
I5
tp1160
a(I765
I5
tp1161
a(I668
I5
tp1162
a(I616
I5
tp1163
a(I591
I5
tp1164
a(I544
I5
tp1165
a(I535
I5
tp1166
a(I389
I5
tp1167
a(I360
I5
tp1168
a(I340
I5
tp1169
a(I262
I5
tp1170
a(I145
I5
tp1171
a(I17
I5
tp1172
a(I1590
I4
tp1173
a(I1530
I4
tp1174
a(I1523
I4
tp1175
a(I1521
I4
tp1176
a(I1513
I4
tp1177
a(I1508
I4
tp1178
a(I1482
I4
tp1179
a(I1473
I4
tp1180
a(I1455
I4
tp1181
a(I1453
I4
tp1182
a(I1422
I4
tp1183
a(I1415
I4
tp1184
a(I1414
I4
tp1185
a(I1403
I4
tp1186
a(I1394
I4
tp1187
a(I1387
I4
tp1188
a(I1378
I4
tp1189
a(I1377
I4
tp1190
a(I1374
I4
tp1191
a(I1343
I4
tp1192
a(I1325
I4
tp1193
a(I1315
I4
tp1194
a(I1301
I4
tp1195
a(I1293
I4
tp1196
a(I1288
I4
tp1197
a(I1286
I4
tp1198
a(I1270
I4
tp1199
a(I1268
I4
tp1200
a(I1263
I4
tp1201
a(I1250
I4
tp1202
a(I1249
I4
tp1203
a(I1245
I4
tp1204
a(I1241
I4
tp1205
a(I1224
I4
tp1206
a(I1212
I4
tp1207
a(I1189
I4
tp1208
a(I1183
I4
tp1209
a(I1174
I4
tp1210
a(I1166
I4
tp1211
a(I1140
I4
tp1212
a(I1126
I4
tp1213
a(I1110
I4
tp1214
a(I1107
I4
tp1215
a(I1099
I4
tp1216
a(I1080
I4
tp1217
a(I1076
I4
tp1218
a(I1074
I4
tp1219
a(I1065
I4
tp1220
a(I1054
I4
tp1221
a(I1003
I4
tp1222
a(I1002
I4
tp1223
a(I1001
I4
tp1224
a(I980
I4
tp1225
a(I953
I4
tp1226
a(I913
I4
tp1227
a(I900
I4
tp1228
a(I884
I4
tp1229
a(I838
I4
tp1230
a(I806
I4
tp1231
a(I797
I4
tp1232
a(I781
I4
tp1233
a(I775
I4
tp1234
a(I756
I4
tp1235
a(I744
I4
tp1236
a(I717
I4
tp1237
a(I705
I4
tp1238
a(I699
I4
tp1239
a(I593
I4
tp1240
a(I554
I4
tp1241
a(I547
I4
tp1242
a(I533
I4
tp1243
a(I436
I4
tp1244
a(I295
I4
tp1245
a(I112
I4
tp1246
a(I36
I4
tp1247
a(I1601
I3
tp1248
a(I1599
I3
tp1249
a(I1591
I3
tp1250
a(I1552
I3
tp1251
a(I1534
I3
tp1252
a(I1510
I3
tp1253
a(I1507
I3
tp1254
a(I1505
I3
tp1255
a(I1500
I3
tp1256
a(I1498
I3
tp1257
a(I1495
I3
tp1258
a(I1464
I3
tp1259
a(I1440
I3
tp1260
a(I1424
I3
tp1261
a(I1417
I3
tp1262
a(I1411
I3
tp1263
a(I1408
I3
tp1264
a(I1405
I3
tp1265
a(I1379
I3
tp1266
a(I1375
I3
tp1267
a(I1367
I3
tp1268
a(I1366
I3
tp1269
a(I1352
I3
tp1270
a(I1337
I3
tp1271
a(I1318
I3
tp1272
a(I1316
I3
tp1273
a(I1311
I3
tp1274
a(I1300
I3
tp1275
a(I1296
I3
tp1276
a(I1292
I3
tp1277
a(I1278
I3
tp1278
a(I1259
I3
tp1279
a(I1256
I3
tp1280
a(I1254
I3
tp1281
a(I1251
I3
tp1282
a(I1248
I3
tp1283
a(I1242
I3
tp1284
a(I1236
I3
tp1285
a(I1232
I3
tp1286
a(I1226
I3
tp1287
a(I1173
I3
tp1288
a(I1163
I3
tp1289
a(I1157
I3
tp1290
a(I1154
I3
tp1291
a(I1153
I3
tp1292
a(I1150
I3
tp1293
a(I1147
I3
tp1294
a(I1143
I3
tp1295
a(I1103
I3
tp1296
a(I1101
I3
tp1297
a(I1030
I3
tp1298
a(I1028
I3
tp1299
a(I1025
I3
tp1300
a(I991
I3
tp1301
a(I926
I3
tp1302
a(I916
I3
tp1303
a(I910
I3
tp1304
a(I866
I3
tp1305
a(I850
I3
tp1306
a(I803
I3
tp1307
a(I792
I3
tp1308
a(I785
I3
tp1309
a(I776
I3
tp1310
a(I438
I3
tp1311
a(I437
I3
tp1312
a(I396
I3
tp1313
a(I373
I3
tp1314
a(I313
I3
tp1315
a(I33
I3
tp1316
a(I1663
I2
tp1317
a(I1661
I2
tp1318
a(I1657
I2
tp1319
a(I1655
I2
tp1320
a(I1642
I2
tp1321
a(I1638
I2
tp1322
a(I1630
I2
tp1323
a(I1622
I2
tp1324
a(I1621
I2
tp1325
a(I1610
I2
tp1326
a(I1606
I2
tp1327
a(I1597
I2
tp1328
a(I1596
I2
tp1329
a(I1593
I2
tp1330
a(I1589
I2
tp1331
a(I1588
I2
tp1332
a(I1559
I2
tp1333
a(I1555
I2
tp1334
a(I1546
I2
tp1335
a(I1543
I2
tp1336
a(I1538
I2
tp1337
a(I1533
I2
tp1338
a(I1527
I2
tp1339
a(I1520
I2
tp1340
a(I1516
I2
tp1341
a(I1512
I2
tp1342
a(I1511
I2
tp1343
a(I1503
I2
tp1344
a(I1496
I2
tp1345
a(I1494
I2
tp1346
a(I1490
I2
tp1347
a(I1489
I2
tp1348
a(I1488
I2
tp1349
a(I1483
I2
tp1350
a(I1474
I2
tp1351
a(I1467
I2
tp1352
a(I1466
I2
tp1353
a(I1463
I2
tp1354
a(I1444
I2
tp1355
a(I1442
I2
tp1356
a(I1441
I2
tp1357
a(I1439
I2
tp1358
a(I1431
I2
tp1359
a(I1428
I2
tp1360
a(I1425
I2
tp1361
a(I1423
I2
tp1362
a(I1402
I2
tp1363
a(I1401
I2
tp1364
a(I1395
I2
tp1365
a(I1391
I2
tp1366
a(I1384
I2
tp1367
a(I1383
I2
tp1368
a(I1382
I2
tp1369
a(I1380
I2
tp1370
a(I1373
I2
tp1371
a(I1371
I2
tp1372
a(I1368
I2
tp1373
a(I1361
I2
tp1374
a(I1359
I2
tp1375
a(I1358
I2
tp1376
a(I1357
I2
tp1377
a(I1355
I2
tp1378
a(I1346
I2
tp1379
a(I1341
I2
tp1380
a(I1332
I2
tp1381
a(I1330
I2
tp1382
a(I1329
I2
tp1383
a(I1326
I2
tp1384
a(I1321
I2
tp1385
a(I1305
I2
tp1386
a(I1299
I2
tp1387
a(I1294
I2
tp1388
a(I1281
I2
tp1389
a(I1275
I2
tp1390
a(I1271
I2
tp1391
a(I1261
I2
tp1392
a(I1258
I2
tp1393
a(I1255
I2
tp1394
a(I1240
I2
tp1395
a(I1211
I2
tp1396
a(I1197
I2
tp1397
a(I1190
I2
tp1398
a(I1172
I2
tp1399
a(I1161
I2
tp1400
a(I1145
I2
tp1401
a(I1124
I2
tp1402
a(I1105
I2
tp1403
a(I1095
I2
tp1404
a(I1082
I2
tp1405
a(I1079
I2
tp1406
a(I1075
I2
tp1407
a(I1042
I2
tp1408
a(I1026
I2
tp1409
a(I993
I2
tp1410
a(I972
I2
tp1411
a(I963
I2
tp1412
a(I919
I2
tp1413
a(I912
I2
tp1414
a(I909
I2
tp1415
a(I883
I2
tp1416
a(I860
I2
tp1417
a(I837
I2
tp1418
a(I821
I2
tp1419
a(I816
I2
tp1420
a(I798
I2
tp1421
a(I667
I2
tp1422
a(I665
I2
tp1423
a(I642
I2
tp1424
a(I625
I2
tp1425
a(I441
I2
tp1426
a(I103
I2
tp1427
a(I74
I2
tp1428
a(I73
I2
tp1429
a(I34
I2
tp1430
a(I1681
I1
tp1431
a(I1680
I1
tp1432
a(I1678
I1
tp1433
a(I1677
I1
tp1434
a(I1676
I1
tp1435
a(I1674
I1
tp1436
a(I1673
I1
tp1437
a(I1671
I1
tp1438
a(I1668
I1
tp1439
a(I1667
I1
tp1440
a(I1664
I1
tp1441
a(I1662
I1
tp1442
a(I1660
I1
tp1443
a(I1658
I1
tp1444
a(I1656
I1
tp1445
a(I1652
I1
tp1446
a(I1651
I1
tp1447
a(I1650
I1
tp1448
a(I1646
I1
tp1449
a(I1645
I1
tp1450
a(I1644
I1
tp1451
a(I1643
I1
tp1452
a(I1641
I1
tp1453
a(I1640
I1
tp1454
a(I1636
I1
tp1455
a(I1633
I1
tp1456
a(I1632
I1
tp1457
a(I1628
I1
tp1458
a(I1627
I1
tp1459
a(I1620
I1
tp1460
a(I1617
I1
tp1461
a(I1616
I1
tp1462
a(I1615
I1
tp1463
a(I1613
I1
tp1464
a(I1609
I1
tp1465
a(I1608
I1
tp1466
a(I1607
I1
tp1467
a(I1604
I1
tp1468
a(I1603
I1
tp1469
a(I1602
I1
tp1470
a(I1600
I1
tp1471
a(I1598
I1
tp1472
a(I1595
I1
tp1473
a(I1594
I1
tp1474
a(I1592
I1
tp1475
a(I1587
I1
tp1476
a(I1584
I1
tp1477
a(I1582
I1
tp1478
a(I1578
I1
tp1479
a(I1577
I1
tp1480
a(I1572
I1
tp1481
a(I1571
I1
tp1482
a(I1570
I1
tp1483
a(I1569
I1
tp1484
a(I1567
I1
tp1485
a(I1565
I1
tp1486
a(I1564
I1
tp1487
a(I1563
I1
tp1488
a(I1562
I1
tp1489
a(I1551
I1
tp1490
a(I1549
I1
tp1491
a(I1545
I1
tp1492
a(I1544
I1
tp1493
a(I1542
I1
tp1494
a(I1541
I1
tp1495
a(I1537
I1
tp1496
a(I1536
I1
tp1497
a(I1535
I1
tp1498
a(I1532
I1
tp1499
a(I1531
I1
tp1500
a(I1529
I1
tp1501
a(I1528
I1
tp1502
a(I1524
I1
tp1503
a(I1522
I1
tp1504
a(I1515
I1
tp1505
a(I1514
I1
tp1506
a(I1506
I1
tp1507
a(I1499
I1
tp1508
a(I1497
I1
tp1509
a(I1487
I1
tp1510
a(I1486
I1
tp1511
a(I1484
I1
tp1512
a(I1481
I1
tp1513
a(I1480
I1
tp1514
a(I1462
I1
tp1515
a(I1460
I1
tp1516
a(I1459
I1
tp1517
a(I1451
I1
tp1518
a(I1449
I1
tp1519
a(I1447
I1
tp1520
a(I1446
I1
tp1521
a(I1435
I1
tp1522
a(I1432
I1
tp1523
a(I1430
I1
tp1524
a(I1429
I1
tp1525
a(I1426
I1
tp1526
a(I1421
I1
tp1527
a(I1416
I1
tp1528
a(I1413
I1
tp1529
a(I1407
I1
tp1530
a(I1404
I1
tp1531
a(I1396
I1
tp1532
a(I1390
I1
tp1533
a(I1389
I1
tp1534
a(I1388
I1
tp1535
a(I1386
I1
tp1536
a(I1385
I1
tp1537
a(I1381
I1
tp1538
a(I1376
I1
tp1539
a(I1370
I1
tp1540
a(I1369
I1
tp1541
a(I1364
I1
tp1542
a(I1363
I1
tp1543
a(I1360
I1
tp1544
a(I1350
I1
tp1545
a(I1349
I1
tp1546
a(I1347
I1
tp1547
a(I1340
I1
tp1548
a(I1338
I1
tp1549
a(I1333
I1
tp1550
a(I1327
I1
tp1551
a(I1324
I1
tp1552
a(I1323
I1
tp1553
a(I1320
I1
tp1554
a(I1317
I1
tp1555
a(I1309
I1
tp1556
a(I1308
I1
tp1557
a(I1307
I1
tp1558
a(I1303
I1
tp1559
a(I1291
I1
tp1560
a(I1289
I1
tp1561
a(I1274
I1
tp1562
a(I1260
I1
tp1563
a(I1246
I1
tp1564
a(I1222
I1
tp1565
a(I1215
I1
tp1566
a(I1195
I1
tp1567
a(I1188
I1
tp1568
a(I1185
I1
tp1569
a(I1176
I1
tp1570
a(I1155
I1
tp1571
a(I1137
I1
tp1572
a(I1129
I1
tp1573
a(I1122
I1
tp1574
a(I1063
I1
tp1575
a(I896
I1
tp1576
a(I890
I1
tp1577
a(I856
I1
tp1578
a(I849
I1
tp1579
a(I813
I1
tp1580
a(I787
I1
tp1581
a(I783
I1
tp1582
a(I710
I1
tp1583
a(I676
I1
tp1584
a(I599
I1
tp1585
a(I598
I1
tp1586
a(I597
I1
tp1587
a(I246
I1
tp1588
a(I118
I1
tp1589
a(I1679
I0
tp1590
a(I1675
I0
tp1591
a(I1672
I0
tp1592
a(I1670
I0
tp1593
a(I1669
I0
tp1594
a(I1666
I0
tp1595
a(I1665
I0
tp1596
a(I1659
I0
tp1597
a(I1654
I0
tp1598
a(I1653
I0
tp1599
a(I1649
I0
tp1600
a(I1648
I0
tp1601
a(I1647
I0
tp1602
a(I1639
I0
tp1603
a(I1637
I0
tp1604
a(I1635
I0
tp1605
a(I1634
I0
tp1606
a(I1631
I0
tp1607
a(I1629
I0
tp1608
a(I1626
I0
tp1609
a(I1625
I0
tp1610
a(I1624
I0
tp1611
a(I1623
I0
tp1612
a(I1618
I0
tp1613
a(I1612
I0
tp1614
a(I1611
I0
tp1615
a(I1605
I0
tp1616
a(I1586
I0
tp1617
a(I1585
I0
tp1618
a(I1583
I0
tp1619
a(I1581
I0
tp1620
a(I1580
I0
tp1621
a(I1579
I0
tp1622
a(I1576
I0
tp1623
a(I1575
I0
tp1624
a(I1574
I0
tp1625
a(I1573
I0
tp1626
a(I1568
I0
tp1627
a(I1566
I0
tp1628
a(I1561
I0
tp1629
a(I1560
I0
tp1630
a(I1558
I0
tp1631
a(I1556
I0
tp1632
a(I1554
I0
tp1633
a(I1553
I0
tp1634
a(I1550
I0
tp1635
a(I1548
I0
tp1636
a(I1547
I0
tp1637
a(I1540
I0
tp1638
a(I1525
I0
tp1639
a(I1519
I0
tp1640
a(I1518
I0
tp1641
a(I1509
I0
tp1642
a(I1504
I0
tp1643
a(I1501
I0
tp1644
a(I1493
I0
tp1645
a(I1492
I0
tp1646
a(I1491
I0
tp1647
a(I1485
I0
tp1648
a(I1476
I0
tp1649
a(I1475
I0
tp1650
a(I1471
I0
tp1651
a(I1469
I0
tp1652
a(I1457
I0
tp1653
a(I1456
I0
tp1654
a(I1454
I0
tp1655
a(I1452
I0
tp1656
a(I1419
I0
tp1657
a(I1409
I0
tp1658
a(I1397
I0
tp1659
a(I1372
I0
tp1660
a(I1365
I0
tp1661
a(I1362
I0
tp1662
a(I1356
I0
tp1663
a(I1353
I0
tp1664
a(I1351
I0
tp1665
a(I1348
I0
tp1666
a(I1345
I0
tp1667
a(I1344
I0
tp1668
a(I1342
I0
tp1669
a(I1339
I0
tp1670
a(I1331
I0
tp1671
a(I1328
I0
tp1672
a(I1322
I0
tp1673
a(I1319
I0
tp1674
a(I1306
I0
tp1675
a(I1235
I0
tp1676
a(I1234
I0
tp1677
a(I1204
I0
tp1678
a(I1200
I0
tp1679
a(I1121
I0
tp1680
a(I986
I0
tp1681
a(I956
I0
tp1682
a(I934
I0
tp1683
a(I917
I0
tp1684
a(I906
I0
tp1685
a(I867
I0
tp1686
a(I857
I0
tp1687
a(I851
I0
tp1688
a(I829
I0
tp1689
asS'thresh'
p1690
I0
sS'description'
p1691
S'ItemPop'
p1692
sS'method'
p1693
S'count'
p1694
sb.