ccopy_reg
_reconstructor
p1
(cmrec.popularity
ItemPopularityRecommender
p2
c__builtin__
object
p3
NtRp4
(dp5
S'pop_items'
p6
(lp7
(I49
I280
tp8
a(I99
I266
tp9
a(I293
I254
tp10
a(I257
I246
tp11
a(I285
I236
tp12
a(I180
I235
tp13
a(I287
I234
tp14
a(I299
I216
tp15
a(I0
I214
tp16
a(I97
I212
tp17
a(I126
I211
tp18
a(I120
I208
tp19
a(I173
I203
tp20
a(I6
I199
tp21
a(I116
I194
tp22
a(I55
I194
tp23
a(I236
I191
tp24
a(I312
I184
tp25
a(I171
I182
tp26
a(I78
I181
tp27
a(I221
I180
tp28
a(I209
I179
tp29
a(I404
I171
tp30
a(I268
I165
tp31
a(I150
I162
tp32
a(I68
I162
tp33
a(I301
I161
tp34
a(I747
I158
tp35
a(I203
I158
tp36
a(I327
I153
tp37
a(I172
I152
tp38
a(I175
I151
tp39
a(I95
I150
tp40
a(I422
I148
tp41
a(I356
I148
tp42
a(I275
I148
tp43
a(I167
I146
tp44
a(I63
I146
tp45
a(I256
I145
tp46
a(I233
I145
tp47
a(I317
I144
tp48
a(I21
I144
tp49
a(I14
I143
tp50
a(I201
I141
tp51
a(I88
I141
tp52
a(I27
I141
tp53
a(I215
I139
tp54
a(I182
I139
tp55
a(I274
I138
tp56
a(I110
I138
tp57
a(I8
I138
tp58
a(I117
I136
tp59
a(I134
I134
tp60
a(I196
I133
tp61
a(I190
I133
tp62
a(I288
I131
tp63
a(I24
I130
tp64
a(I194
I129
tp65
a(I482
I128
tp66
a(I193
I126
tp67
a(I124
I126
tp68
a(I11
I126
tp69
a(I96
I125
tp70
a(I332
I124
tp71
a(I272
I124
tp72
a(I195
I124
tp73
a(I81
I124
tp74
a(I474
I123
tp75
a(I152
I123
tp76
a(I184
I122
tp77
a(I322
I121
tp78
a(I545
I120
tp79
a(I741
I117
tp80
a(I237
I117
tp81
a(I185
I117
tp82
a(I70
I117
tp83
a(I602
I116
tp84
a(I181
I116
tp85
a(I244
I115
tp86
a(I143
I115
tp87
a(I69
I115
tp88
a(I300
I114
tp89
a(I281
I114
tp90
a(I264
I114
tp91
a(I234
I114
tp92
a(I160
I114
tp93
a(I7
I114
tp94
a(I267
I113
tp95
a(I227
I113
tp96
a(I297
I112
tp97
a(I131
I112
tp98
a(I10
I112
tp99
a(I677
I110
tp100
a(I596
I110
tp101
a(I567
I110
tp102
a(I434
I110
tp103
a(I384
I110
tp104
a(I270
I110
tp105
a(I199
I110
tp106
a(I470
I109
tp107
a(I321
I109
tp108
a(I179
I109
tp109
a(I495
I108
tp110
a(I133
I108
tp111
a(I3
I108
tp112
a(I178
I107
tp113
a(I186
I105
tp114
a(I473
I104
tp115
a(I214
I104
tp116
a(I210
I104
tp117
a(I654
I103
tp118
a(I392
I103
tp119
a(I142
I103
tp120
a(I94
I103
tp121
a(I87
I103
tp122
a(I283
I102
tp123
a(I426
I101
tp124
a(I249
I101
tp125
a(I174
I100
tp126
a(I146
I100
tp127
a(I202
I99
tp128
a(I587
I98
tp129
a(I514
I97
tp130
a(I432
I97
tp131
a(I208
I96
tp132
a(I22
I96
tp133
a(I650
I95
tp134
a(I271
I95
tp135
a(I207
I95
tp136
a(I431
I94
tp137
a(I401
I94
tp138
a(I229
I94
tp139
a(I187
I94
tp140
a(I82
I94
tp141
a(I526
I93
tp142
a(I325
I93
tp143
a(I98
I93
tp144
a(I731
I92
tp145
a(I136
I92
tp146
a(I507
I91
tp147
a(I402
I91
tp148
a(I366
I91
tp149
a(I306
I91
tp150
a(I13
I91
tp151
a(I12
I91
tp152
a(I510
I90
tp153
a(I418
I90
tp154
a(I339
I90
tp155
a(I57
I90
tp156
a(I590
I88
tp157
a(I565
I88
tp158
a(I479
I88
tp159
a(I153
I88
tp160
a(I738
I87
tp161
a(I430
I87
tp162
a(I284
I87
tp163
a(I254
I87
tp164
a(I475
I86
tp165
a(I273
I86
tp166
a(I478
I85
tp167
a(I461
I85
tp168
a(I225
I85
tp169
a(I217
I85
tp170
a(I691
I84
tp171
a(I442
I84
tp172
a(I239
I84
tp173
a(I198
I84
tp174
a(I627
I83
tp175
a(I513
I83
tp176
a(I497
I83
tp177
a(I326
I83
tp178
a(I762
I82
tp179
a(I149
I82
tp180
a(I123
I82
tp181
a(I683
I81
tp182
a(I522
I81
tp183
a(I132
I81
tp184
a(I23
I81
tp185
a(I750
I80
tp186
a(I471
I80
tp187
a(I450
I80
tp188
a(I410
I80
tp189
a(I251
I80
tp190
a(I228
I80
tp191
a(I238
I79
tp192
a(I309
I78
tp193
a(I247
I78
tp194
a(I192
I78
tp195
a(I581
I77
tp196
a(I318
I77
tp197
a(I282
I77
tp198
a(I844
I76
tp199
a(I549
I75
tp200
a(I417
I75
tp201
a(I409
I75
tp202
a(I331
I75
tp203
a(I258
I75
tp204
a(I689
I74
tp205
a(I320
I74
tp206
a(I314
I74
tp207
a(I240
I74
tp208
a(I72
I74
tp209
a(I67
I74
tp210
a(I30
I74
tp211
a(I1046
I73
tp212
a(I684
I73
tp213
a(I659
I73
tp214
a(I558
I73
tp215
a(I454
I73
tp216
a(I303
I73
tp217
a(I484
I72
tp218
a(I155
I72
tp219
a(I65
I72
tp220
a(I1027
I71
tp221
a(I280
I71
tp222
a(I483
I70
tp223
a(I357
I70
tp224
a(I292
I70
tp225
a(I734
I69
tp226
a(I530
I69
tp227
a(I176
I69
tp228
a(I54
I69
tp229
a(I1015
I68
tp230
a(I653
I68
tp231
a(I342
I68
tp232
a(I147
I68
tp233
a(I128
I68
tp234
a(I755
I67
tp235
a(I508
I67
tp236
a(I290
I67
tp237
a(I232
I67
tp238
a(I226
I67
tp239
a(I163
I67
tp240
a(I108
I67
tp241
a(I85
I67
tp242
a(I52
I67
tp243
a(I878
I66
tp244
a(I446
I66
tp245
a(I222
I66
tp246
a(I197
I66
tp247
a(I90
I66
tp248
a(I86
I66
tp249
a(I71
I66
tp250
a(I41
I66
tp251
a(I814
I65
tp252
a(I269
I65
tp253
a(I704
I64
tp254
a(I472
I64
tp255
a(I242
I64
tp256
a(I93
I64
tp257
a(I1
I64
tp258
a(I656
I63
tp259
a(I381
I63
tp260
a(I302
I63
tp261
a(I212
I63
tp262
a(I191
I63
tp263
a(I865
I62
tp264
a(I595
I62
tp265
a(I427
I62
tp266
a(I346
I62
tp267
a(I323
I62
tp268
a(I230
I62
tp269
a(I213
I62
tp270
a(I115
I62
tp271
a(I519
I61
tp272
a(I509
I61
tp273
a(I503
I61
tp274
a(I121
I61
tp275
a(I76
I61
tp276
a(I216
I60
tp277
a(I156
I60
tp278
a(I330
I59
tp279
a(I177
I59
tp280
a(I168
I59
tp281
a(I448
I58
tp282
a(I379
I58
tp283
a(I259
I58
tp284
a(I245
I58
tp285
a(I61
I58
tp286
a(I927
I57
tp287
a(I469
I57
tp288
a(I662
I56
tp289
a(I64
I56
tp290
a(I46
I56
tp291
a(I761
I55
tp292
a(I749
I55
tp293
a(I664
I55
tp294
a(I630
I55
tp295
a(I527
I55
tp296
a(I500
I55
tp297
a(I481
I55
tp298
a(I407
I55
tp299
a(I345
I55
tp300
a(I315
I55
tp301
a(I289
I55
tp302
a(I248
I55
tp303
a(I204
I55
tp304
a(I894
I54
tp305
a(I746
I54
tp306
a(I698
I54
tp307
a(I420
I54
tp308
a(I224
I54
tp309
a(I218
I54
tp310
a(I169
I54
tp311
a(I122
I54
tp312
a(I66
I54
tp313
a(I47
I54
tp314
a(I2
I54
tp315
a(I520
I53
tp316
a(I305
I53
tp317
a(I291
I53
tp318
a(I241
I53
tp319
a(I130
I53
tp320
a(I91
I53
tp321
a(I38
I53
tp322
a(I28
I53
tp323
a(I1013
I52
tp324
a(I1011
I52
tp325
a(I754
I52
tp326
a(I681
I52
tp327
a(I678
I52
tp328
a(I548
I52
tp329
a(I477
I52
tp330
a(I435
I52
tp331
a(I183
I52
tp332
a(I125
I52
tp333
a(I92
I52
tp334
a(I51
I52
tp335
a(I32
I52
tp336
a(I925
I51
tp337
a(I708
I51
tp338
a(I658
I51
tp339
a(I189
I51
tp340
a(I161
I51
tp341
a(I53
I51
tp342
a(I37
I51
tp343
a(I525
I50
tp344
a(I506
I50
tp345
a(I158
I50
tp346
a(I824
I49
tp347
a(I355
I49
tp348
a(I324
I49
tp349
a(I162
I49
tp350
a(I1038
I48
tp351
a(I505
I48
tp352
a(I337
I48
tp353
a(I316
I48
tp354
a(I211
I48
tp355
a(I154
I48
tp356
a(I135
I48
tp357
a(I923
I47
tp358
a(I918
I47
tp359
a(I791
I47
tp360
a(I745
I47
tp361
a(I716
I47
tp362
a(I692
I47
tp363
a(I641
I47
tp364
a(I428
I47
tp365
a(I80
I47
tp366
a(I9
I47
tp367
a(I830
I46
tp368
a(I743
I46
tp369
a(I707
I46
tp370
a(I688
I46
tp371
a(I657
I46
tp372
a(I635
I46
tp373
a(I304
I46
tp374
a(I231
I46
tp375
a(I62
I46
tp376
a(I780
I45
tp377
a(I661
I45
tp378
a(I660
I45
tp379
a(I575
I45
tp380
a(I528
I45
tp381
a(I517
I45
tp382
a(I553
I44
tp383
a(I403
I44
tp384
a(I398
I44
tp385
a(I279
I44
tp386
a(I948
I43
tp387
a(I675
I43
tp388
a(I516
I43
tp389
a(I462
I43
tp390
a(I447
I43
tp391
a(I429
I43
tp392
a(I424
I43
tp393
a(I377
I43
tp394
a(I298
I43
tp395
a(I89
I43
tp396
a(I58
I43
tp397
a(I48
I43
tp398
a(I44
I43
tp399
a(I31
I43
tp400
a(I16
I43
tp401
a(I709
I42
tp402
a(I628
I42
tp403
a(I583
I42
tp404
a(I577
I42
tp405
a(I560
I42
tp406
a(I408
I42
tp407
a(I380
I42
tp408
a(I311
I42
tp409
a(I263
I42
tp410
a(I929
I41
tp411
a(I672
I41
tp412
a(I651
I41
tp413
a(I518
I41
tp414
a(I416
I41
tp415
a(I25
I41
tp416
a(I870
I40
tp417
a(I854
I40
tp418
a(I822
I40
tp419
a(I789
I40
tp420
a(I632
I40
tp421
a(I370
I40
tp422
a(I50
I40
tp423
a(I43
I40
tp424
a(I1073
I39
tp425
a(I1047
I39
tp426
a(I987
I39
tp427
a(I863
I39
tp428
a(I714
I39
tp429
a(I543
I39
tp430
a(I457
I39
tp431
a(I411
I39
tp432
a(I200
I39
tp433
a(I166
I39
tp434
a(I144
I39
tp435
a(I79
I39
tp436
a(I1100
I38
tp437
a(I1010
I38
tp438
a(I779
I38
tp439
a(I639
I38
tp440
a(I615
I38
tp441
a(I603
I38
tp442
a(I568
I38
tp443
a(I476
I38
tp444
a(I464
I38
tp445
a(I419
I38
tp446
a(I958
I37
tp447
a(I872
I37
tp448
a(I819
I37
tp449
a(I385
I37
tp450
a(I20
I37
tp451
a(I18
I37
tp452
a(I897
I36
tp453
a(I735
I36
tp454
a(I618
I36
tp455
a(I524
I36
tp456
a(I512
I36
tp457
a(I504
I36
tp458
a(I460
I36
tp459
a(I391
I36
tp460
a(I286
I36
tp461
a(I206
I36
tp462
a(I140
I36
tp463
a(I1008
I35
tp464
a(I968
I35
tp465
a(I825
I35
tp466
a(I723
I35
tp467
a(I706
I35
tp468
a(I626
I35
tp469
a(I529
I35
tp470
a(I515
I35
tp471
a(I490
I35
tp472
a(I151
I35
tp473
a(I119
I35
tp474
a(I60
I35
tp475
a(I1072
I34
tp476
a(I777
I34
tp477
a(I728
I34
tp478
a(I719
I34
tp479
a(I712
I34
tp480
a(I695
I34
tp481
a(I686
I34
tp482
a(I685
I34
tp483
a(I647
I34
tp484
a(I557
I34
tp485
a(I496
I34
tp486
a(I468
I34
tp487
a(I440
I34
tp488
a(I433
I34
tp489
a(I310
I34
tp490
a(I294
I34
tp491
a(I277
I34
tp492
a(I276
I34
tp493
a(I165
I34
tp494
a(I19
I34
tp495
a(I4
I34
tp496
a(I992
I33
tp497
a(I848
I33
tp498
a(I812
I33
tp499
a(I631
I33
tp500
a(I605
I33
tp501
a(I580
I33
tp502
a(I491
I33
tp503
a(I485
I33
tp504
a(I333
I33
tp505
a(I220
I33
tp506
a(I219
I33
tp507
a(I113
I33
tp508
a(I826
I32
tp509
a(I769
I32
tp510
a(I649
I32
tp511
a(I537
I32
tp512
a(I487
I32
tp513
a(I467
I32
tp514
a(I451
I32
tp515
a(I449
I32
tp516
a(I400
I32
tp517
a(I170
I32
tp518
a(I127
I32
tp519
a(I105
I32
tp520
a(I59
I32
tp521
a(I945
I31
tp522
a(I938
I31
tp523
a(I879
I31
tp524
a(I726
I31
tp525
a(I511
I31
tp526
a(I480
I31
tp527
a(I415
I31
tp528
a(I261
I31
tp529
a(I253
I31
tp530
a(I157
I31
tp531
a(I104
I31
tp532
a(I100
I31
tp533
a(I84
I31
tp534
a(I1118
I30
tp535
a(I941
I30
tp536
a(I933
I30
tp537
a(I930
I30
tp538
a(I891
I30
tp539
a(I886
I30
tp540
a(I759
I30
tp541
a(I740
I30
tp542
a(I715
I30
tp543
a(I671
I30
tp544
a(I624
I30
tp545
a(I412
I30
tp546
a(I390
I30
tp547
a(I344
I30
tp548
a(I107
I30
tp549
a(I1034
I29
tp550
a(I832
I29
tp551
a(I739
I29
tp552
a(I736
I29
tp553
a(I646
I29
tp554
a(I552
I29
tp555
a(I541
I29
tp556
a(I494
I29
tp557
a(I488
I29
tp558
a(I486
I29
tp559
a(I413
I29
tp560
a(I386
I29
tp561
a(I383
I29
tp562
a(I296
I29
tp563
a(I159
I29
tp564
a(I141
I29
tp565
a(I101
I29
tp566
a(I1040
I28
tp567
a(I954
I28
tp568
a(I619
I28
tp569
a(I498
I28
tp570
a(I443
I28
tp571
a(I368
I28
tp572
a(I353
I28
tp573
a(I205
I28
tp574
a(I885
I27
tp575
a(I808
I27
tp576
a(I788
I27
tp577
a(I721
I27
tp578
a(I614
I27
tp579
a(I613
I27
tp580
a(I608
I27
tp581
a(I594
I27
tp582
a(I501
I27
tp583
a(I465
I27
tp584
a(I395
I27
tp585
a(I138
I27
tp586
a(I26
I27
tp587
a(I1059
I26
tp588
a(I951
I26
tp589
a(I846
I26
tp590
a(I682
I26
tp591
a(I655
I26
tp592
a(I492
I26
tp593
a(I405
I26
tp594
a(I341
I26
tp595
a(I338
I26
tp596
a(I164
I26
tp597
a(I15
I26
tp598
a(I1097
I25
tp599
a(I1043
I25
tp600
a(I840
I25
tp601
a(I771
I25
tp602
a(I753
I25
tp603
a(I720
I25
tp604
a(I606
I25
tp605
a(I539
I25
tp606
a(I523
I25
tp607
a(I188
I25
tp608
a(I40
I25
tp609
a(I39
I25
tp610
a(I1134
I24
tp611
a(I1117
I24
tp612
a(I1078
I24
tp613
a(I1066
I24
tp614
a(I989
I24
tp615
a(I955
I24
tp616
a(I947
I24
tp617
a(I920
I24
tp618
a(I876
I24
tp619
a(I839
I24
tp620
a(I823
I24
tp621
a(I818
I24
tp622
a(I748
I24
tp623
a(I727
I24
tp624
a(I693
I24
tp625
a(I673
I24
tp626
a(I489
I24
tp627
a(I455
I24
tp628
a(I394
I24
tp629
a(I139
I24
tp630
a(I75
I24
tp631
a(I1227
I23
tp632
a(I1016
I23
tp633
a(I983
I23
tp634
a(I974
I23
tp635
a(I899
I23
tp636
a(I711
I23
tp637
a(I674
I23
tp638
a(I645
I23
tp639
a(I621
I23
tp640
a(I601
I23
tp641
a(I534
I23
tp642
a(I406
I23
tp643
a(I364
I23
tp644
a(I362
I23
tp645
a(I1209
I22
tp646
a(I922
I22
tp647
a(I875
I22
tp648
a(I874
I22
tp649
a(I843
I22
tp650
a(I793
I22
tp651
a(I784
I22
tp652
a(I701
I22
tp653
a(I670
I22
tp654
a(I669
I22
tp655
a(I582
I22
tp656
a(I574
I22
tp657
a(I569
I22
tp658
a(I365
I22
tp659
a(I343
I22
tp660
a(I250
I22
tp661
a(I1058
I21
tp662
a(I1049
I21
tp663
a(I1009
I21
tp664
a(I1007
I21
tp665
a(I940
I21
tp666
a(I936
I21
tp667
a(I889
I21
tp668
a(I805
I21
tp669
a(I795
I21
tp670
a(I770
I21
tp671
a(I768
I21
tp672
a(I760
I21
tp673
a(I722
I21
tp674
a(I638
I21
tp675
a(I622
I21
tp676
a(I609
I21
tp677
a(I546
I21
tp678
a(I538
I21
tp679
a(I466
I21
tp680
a(I363
I21
tp681
a(I328
I21
tp682
a(I243
I21
tp683
a(I235
I21
tp684
a(I223
I21
tp685
a(I56
I21
tp686
a(I1141
I20
tp687
a(I1109
I20
tp688
a(I1024
I20
tp689
a(I1006
I20
tp690
a(I960
I20
tp691
a(I931
I20
tp692
a(I924
I20
tp693
a(I828
I20
tp694
a(I751
I20
tp695
a(I687
I20
tp696
a(I561
I20
tp697
a(I551
I20
tp698
a(I540
I20
tp699
a(I354
I20
tp700
a(I1138
I19
tp701
a(I1064
I19
tp702
a(I1050
I19
tp703
a(I973
I19
tp704
a(I962
I19
tp705
a(I944
I19
tp706
a(I877
I19
tp707
a(I871
I19
tp708
a(I855
I19
tp709
a(I778
I19
tp710
a(I767
I19
tp711
a(I610
I19
tp712
a(I584
I19
tp713
a(I572
I19
tp714
a(I521
I19
tp715
a(I493
I19
tp716
a(I388
I19
tp717
a(I329
I19
tp718
a(I1114
I18
tp719
a(I1108
I18
tp720
a(I1060
I18
tp721
a(I1045
I18
tp722
a(I1022
I18
tp723
a(I895
I18
tp724
a(I809
I18
tp725
a(I796
I18
tp726
a(I742
I18
tp727
a(I696
I18
tp728
a(I663
I18
tp729
a(I648
I18
tp730
a(I637
I18
tp731
a(I636
I18
tp732
a(I629
I18
tp733
a(I604
I18
tp734
a(I570
I18
tp735
a(I458
I18
tp736
a(I382
I18
tp737
a(I372
I18
tp738
a(I371
I18
tp739
a(I369
I18
tp740
a(I349
I18
tp741
a(I260
I18
tp742
a(I252
I18
tp743
a(I109
I18
tp744
a(I106
I18
tp745
a(I42
I18
tp746
a(I1220
I17
tp747
a(I1217
I17
tp748
a(I1216
I17
tp749
a(I1187
I17
tp750
a(I1136
I17
tp751
a(I1132
I17
tp752
a(I1090
I17
tp753
a(I1041
I17
tp754
a(I1018
I17
tp755
a(I1012
I17
tp756
a(I988
I17
tp757
a(I977
I17
tp758
a(I976
I17
tp759
a(I950
I17
tp760
a(I949
I17
tp761
a(I939
I17
tp762
a(I928
I17
tp763
a(I881
I17
tp764
a(I730
I17
tp765
a(I680
I17
tp766
a(I640
I17
tp767
a(I588
I17
tp768
a(I579
I17
tp769
a(I562
I17
tp770
a(I425
I17
tp771
a(I278
I17
tp772
a(I77
I17
tp773
a(I29
I17
tp774
a(I1243
I16
tp775
a(I1225
I16
tp776
a(I1169
I16
tp777
a(I1156
I16
tp778
a(I1151
I16
tp779
a(I1148
I16
tp780
a(I1125
I16
tp781
a(I1089
I16
tp782
a(I1088
I16
tp783
a(I1062
I16
tp784
a(I1021
I16
tp785
a(I1020
I16
tp786
a(I1019
I16
tp787
a(I990
I16
tp788
a(I943
I16
tp789
a(I880
I16
tp790
a(I807
I16
tp791
a(I773
I16
tp792
a(I752
I16
tp793
a(I733
I16
tp794
a(I718
I16
tp795
a(I679
I16
tp796
a(I643
I16
tp797
a(I585
I16
tp798
a(I576
I16
tp799
a(I571
I16
tp800
a(I566
I16
tp801
a(I536
I16
tp802
a(I502
I16
tp803
a(I378
I16
tp804
a(I348
I16
tp805
a(I335
I16
tp806
a(I1219
I15
tp807
a(I1214
I15
tp808
a(I1196
I15
tp809
a(I1162
I15
tp810
a(I1133
I15
tp811
a(I1128
I15
tp812
a(I1044
I15
tp813
a(I970
I15
tp814
a(I921
I15
tp815
a(I904
I15
tp816
a(I873
I15
tp817
a(I845
I15
tp818
a(I842
I15
tp819
a(I782
I15
tp820
a(I774
I15
tp821
a(I763
I15
tp822
a(I737
I15
tp823
a(I729
I15
tp824
a(I644
I15
tp825
a(I612
I15
tp826
a(I611
I15
tp827
a(I459
I15
tp828
a(I387
I15
tp829
a(I367
I15
tp830
a(I308
I15
tp831
a(I1159
I14
tp832
a(I1135
I14
tp833
a(I1131
I14
tp834
a(I1112
I14
tp835
a(I1085
I14
tp836
a(I978
I14
tp837
a(I971
I14
tp838
a(I901
I14
tp839
a(I835
I14
tp840
a(I764
I14
tp841
a(I652
I14
tp842
a(I607
I14
tp843
a(I564
I14
tp844
a(I463
I14
tp845
a(I397
I14
tp846
a(I351
I14
tp847
a(I347
I14
tp848
a(I307
I14
tp849
a(I265
I14
tp850
a(I1266
I13
tp851
a(I1094
I13
tp852
a(I1069
I13
tp853
a(I1052
I13
tp854
a(I1036
I13
tp855
a(I1035
I13
tp856
a(I1032
I13
tp857
a(I981
I13
tp858
a(I959
I13
tp859
a(I952
I13
tp860
a(I905
I13
tp861
a(I862
I13
tp862
a(I801
I13
tp863
a(I550
I13
tp864
a(I542
I13
tp865
a(I456
I13
tp866
a(I421
I13
tp867
a(I375
I13
tp868
a(I361
I13
tp869
a(I148
I13
tp870
a(I137
I13
tp871
a(I1406
I12
tp872
a(I1283
I12
tp873
a(I1257
I12
tp874
a(I1239
I12
tp875
a(I1202
I12
tp876
a(I1051
I12
tp877
a(I1039
I12
tp878
a(I1033
I12
tp879
a(I1017
I12
tp880
a(I994
I12
tp881
a(I932
I12
tp882
a(I915
I12
tp883
a(I907
I12
tp884
a(I861
I12
tp885
a(I841
I12
tp886
a(I836
I12
tp887
a(I831
I12
tp888
a(I820
I12
tp889
a(I810
I12
tp890
a(I804
I12
tp891
a(I799
I12
tp892
a(I703
I12
tp893
a(I634
I12
tp894
a(I616
I12
tp895
a(I1445
I11
tp896
a(I1443
I11
tp897
a(I1400
I11
tp898
a(I1264
I11
tp899
a(I1238
I11
tp900
a(I1184
I11
tp901
a(I1177
I11
tp902
a(I1120
I11
tp903
a(I1053
I11
tp904
a(I1048
I11
tp905
a(I967
I11
tp906
a(I965
I11
tp907
a(I961
I11
tp908
a(I942
I11
tp909
a(I937
I11
tp910
a(I888
I11
tp911
a(I868
I11
tp912
a(I833
I11
tp913
a(I623
I11
tp914
a(I589
I11
tp915
a(I578
I11
tp916
a(I499
I11
tp917
a(I414
I11
tp918
a(I358
I11
tp919
a(I5
I11
tp920
a(I1418
I10
tp921
a(I1410
I10
tp922
a(I1314
I10
tp923
a(I1295
I10
tp924
a(I1285
I10
tp925
a(I1282
I10
tp926
a(I1244
I10
tp927
a(I1230
I10
tp928
a(I1205
I10
tp929
a(I1198
I10
tp930
a(I1104
I10
tp931
a(I1068
I10
tp932
a(I1029
I10
tp933
a(I1023
I10
tp934
a(I1005
I10
tp935
a(I964
I10
tp936
a(I859
I10
tp937
a(I785
I10
tp938
a(I724
I10
tp939
a(I617
I10
tp940
a(I573
I10
tp941
a(I563
I10
tp942
a(I531
I10
tp943
a(I453
I10
tp944
a(I444
I10
tp945
a(I423
I10
tp946
a(I376
I10
tp947
a(I334
I10
tp948
a(I129
I10
tp949
a(I45
I10
tp950
a(I1247
I9
tp951
a(I1231
I9
tp952
a(I1221
I9
tp953
a(I1203
I9
tp954
a(I1186
I9
tp955
a(I1181
I9
tp956
a(I1167
I9
tp957
a(I1152
I9
tp958
a(I1139
I9
tp959
a(I1096
I9
tp960
a(I1087
I9
tp961
a(I1083
I9
tp962
a(I1077
I9
tp963
a(I1065
I9
tp964
a(I1057
I9
tp965
a(I1056
I9
tp966
a(I985
I9
tp967
a(I979
I9
tp968
a(I946
I9
tp969
a(I935
I9
tp970
a(I903
I9
tp971
a(I893
I9
tp972
a(I817
I9
tp973
a(I815
I9
tp974
a(I800
I9
tp975
a(I757
I9
tp976
a(I690
I9
tp977
a(I668
I9
tp978
a(I633
I9
tp979
a(I547
I9
tp980
a(I533
I9
tp981
a(I532
I9
tp982
a(I399
I9
tp983
a(I352
I9
tp984
a(I262
I9
tp985
a(I102
I9
tp986
a(I1427
I8
tp987
a(I1279
I8
tp988
a(I1229
I8
tp989
a(I1191
I8
tp990
a(I1164
I8
tp991
a(I1127
I8
tp992
a(I1126
I8
tp993
a(I1055
I8
tp994
a(I1031
I8
tp995
a(I1004
I8
tp996
a(I1000
I8
tp997
a(I998
I8
tp998
a(I984
I8
tp999
a(I913
I8
tp1000
a(I858
I8
tp1001
a(I834
I8
tp1002
a(I811
I8
tp1003
a(I794
I8
tp1004
a(I744
I8
tp1005
a(I732
I8
tp1006
a(I702
I8
tp1007
a(I700
I8
tp1008
a(I699
I8
tp1009
a(I694
I8
tp1010
a(I600
I8
tp1011
a(I592
I8
tp1012
a(I555
I8
tp1013
a(I350
I8
tp1014
a(I336
I8
tp1015
a(I111
I8
tp1016
a(I83
I8
tp1017
a(I1479
I7
tp1018
a(I1477
I7
tp1019
a(I1468
I7
tp1020
a(I1433
I7
tp1021
a(I1414
I7
tp1022
a(I1312
I7
tp1023
a(I1302
I7
tp1024
a(I1280
I7
tp1025
a(I1272
I7
tp1026
a(I1262
I7
tp1027
a(I1213
I7
tp1028
a(I1208
I7
tp1029
a(I1207
I7
tp1030
a(I1206
I7
tp1031
a(I1193
I7
tp1032
a(I1175
I7
tp1033
a(I1171
I7
tp1034
a(I1166
I7
tp1035
a(I1142
I7
tp1036
a(I1115
I7
tp1037
a(I1111
I7
tp1038
a(I1102
I7
tp1039
a(I1070
I7
tp1040
a(I1037
I7
tp1041
a(I1028
I7
tp1042
a(I1014
I7
tp1043
a(I996
I7
tp1044
a(I975
I7
tp1045
a(I908
I7
tp1046
a(I900
I7
tp1047
a(I892
I7
tp1048
a(I883
I7
tp1049
a(I869
I7
tp1050
a(I852
I7
tp1051
a(I772
I7
tp1052
a(I717
I7
tp1053
a(I586
I7
tp1054
a(I559
I7
tp1055
a(I556
I7
tp1056
a(I445
I7
tp1057
a(I374
I7
tp1058
a(I319
I7
tp1059
a(I255
I7
tp1060
a(I114
I7
tp1061
a(I1530
I6
tp1062
a(I1523
I6
tp1063
a(I1502
I6
tp1064
a(I1478
I6
tp1065
a(I1450
I6
tp1066
a(I1420
I6
tp1067
a(I1392
I6
tp1068
a(I1374
I6
tp1069
a(I1334
I6
tp1070
a(I1313
I6
tp1071
a(I1298
I6
tp1072
a(I1297
I6
tp1073
a(I1296
I6
tp1074
a(I1290
I6
tp1075
a(I1277
I6
tp1076
a(I1276
I6
tp1077
a(I1267
I6
tp1078
a(I1265
I6
tp1079
a(I1248
I6
tp1080
a(I1218
I6
tp1081
a(I1189
I6
tp1082
a(I1182
I6
tp1083
a(I1170
I6
tp1084
a(I1158
I6
tp1085
a(I1146
I6
tp1086
a(I1123
I6
tp1087
a(I1116
I6
tp1088
a(I1098
I6
tp1089
a(I1093
I6
tp1090
a(I1092
I6
tp1091
a(I1075
I6
tp1092
a(I1074
I6
tp1093
a(I1003
I6
tp1094
a(I1001
I6
tp1095
a(I999
I6
tp1096
a(I982
I6
tp1097
a(I966
I6
tp1098
a(I963
I6
tp1099
a(I957
I6
tp1100
a(I953
I6
tp1101
a(I914
I6
tp1102
a(I902
I6
tp1103
a(I887
I6
tp1104
a(I882
I6
tp1105
a(I864
I6
tp1106
a(I853
I6
tp1107
a(I847
I6
tp1108
a(I667
I6
tp1109
a(I666
I6
tp1110
a(I544
I6
tp1111
a(I452
I6
tp1112
a(I439
I6
tp1113
a(I393
I6
tp1114
a(I389
I6
tp1115
a(I145
I6
tp1116
a(I35
I6
tp1117
a(I1619
I5
tp1118
a(I1539
I5
tp1119
a(I1521
I5
tp1120
a(I1517
I5
tp1121
a(I1408
I5
tp1122
a(I1403
I5
tp1123
a(I1399
I5
tp1124
a(I1393
I5
tp1125
a(I1378
I5
tp1126
a(I1311
I5
tp1127
a(I1310
I5
tp1128
a(I1273
I5
tp1129
a(I1270
I5
tp1130
a(I1268
I5
tp1131
a(I1263
I5
tp1132
a(I1253
I5
tp1133
a(I1252
I5
tp1134
a(I1251
I5
tp1135
a(I1250
I5
tp1136
a(I1237
I5
tp1137
a(I1199
I5
tp1138
a(I1179
I5
tp1139
a(I1172
I5
tp1140
a(I1153
I5
tp1141
a(I1140
I5
tp1142
a(I1119
I5
tp1143
a(I1113
I5
tp1144
a(I1101
I5
tp1145
a(I1067
I5
tp1146
a(I997
I5
tp1147
a(I969
I5
tp1148
a(I934
I5
tp1149
a(I911
I5
tp1150
a(I898
I5
tp1151
a(I827
I5
tp1152
a(I802
I5
tp1153
a(I792
I5
tp1154
a(I786
I5
tp1155
a(I781
I5
tp1156
a(I758
I5
tp1157
a(I725
I5
tp1158
a(I713
I5
tp1159
a(I620
I5
tp1160
a(I591
I5
tp1161
a(I554
I5
tp1162
a(I437
I5
tp1163
a(I373
I5
tp1164
a(I360
I5
tp1165
a(I73
I5
tp1166
a(I1614
I4
tp1167
a(I1557
I4
tp1168
a(I1536
I4
tp1169
a(I1516
I4
tp1170
a(I1513
I4
tp1171
a(I1511
I4
tp1172
a(I1500
I4
tp1173
a(I1488
I4
tp1174
a(I1482
I4
tp1175
a(I1473
I4
tp1176
a(I1461
I4
tp1177
a(I1448
I4
tp1178
a(I1436
I4
tp1179
a(I1412
I4
tp1180
a(I1405
I4
tp1181
a(I1404
I4
tp1182
a(I1394
I4
tp1183
a(I1384
I4
tp1184
a(I1382
I4
tp1185
a(I1380
I4
tp1186
a(I1375
I4
tp1187
a(I1354
I4
tp1188
a(I1346
I4
tp1189
a(I1325
I4
tp1190
a(I1315
I4
tp1191
a(I1299
I4
tp1192
a(I1294
I4
tp1193
a(I1275
I4
tp1194
a(I1261
I4
tp1195
a(I1245
I4
tp1196
a(I1242
I4
tp1197
a(I1241
I4
tp1198
a(I1233
I4
tp1199
a(I1228
I4
tp1200
a(I1224
I4
tp1201
a(I1223
I4
tp1202
a(I1197
I4
tp1203
a(I1194
I4
tp1204
a(I1192
I4
tp1205
a(I1178
I4
tp1206
a(I1173
I4
tp1207
a(I1165
I4
tp1208
a(I1160
I4
tp1209
a(I1150
I4
tp1210
a(I1130
I4
tp1211
a(I1106
I4
tp1212
a(I1084
I4
tp1213
a(I1080
I4
tp1214
a(I1071
I4
tp1215
a(I1002
I4
tp1216
a(I995
I4
tp1217
a(I972
I4
tp1218
a(I890
I4
tp1219
a(I884
I4
tp1220
a(I806
I4
tp1221
a(I797
I4
tp1222
a(I790
I4
tp1223
a(I766
I4
tp1224
a(I765
I4
tp1225
a(I697
I4
tp1226
a(I593
I4
tp1227
a(I535
I4
tp1228
a(I359
I4
tp1229
a(I74
I4
tp1230
a(I33
I4
tp1231
a(I17
I4
tp1232
a(I1611
I3
tp1233
a(I1608
I3
tp1234
a(I1590
I3
tp1235
a(I1588
I3
tp1236
a(I1559
I3
tp1237
a(I1533
I3
tp1238
a(I1520
I3
tp1239
a(I1510
I3
tp1240
a(I1505
I3
tp1241
a(I1495
I3
tp1242
a(I1489
I3
tp1243
a(I1486
I3
tp1244
a(I1484
I3
tp1245
a(I1474
I3
tp1246
a(I1472
I3
tp1247
a(I1467
I3
tp1248
a(I1465
I3
tp1249
a(I1455
I3
tp1250
a(I1442
I3
tp1251
a(I1440
I3
tp1252
a(I1439
I3
tp1253
a(I1438
I3
tp1254
a(I1429
I3
tp1255
a(I1428
I3
tp1256
a(I1422
I3
tp1257
a(I1411
I3
tp1258
a(I1398
I3
tp1259
a(I1395
I3
tp1260
a(I1385
I3
tp1261
a(I1377
I3
tp1262
a(I1367
I3
tp1263
a(I1356
I3
tp1264
a(I1352
I3
tp1265
a(I1337
I3
tp1266
a(I1336
I3
tp1267
a(I1335
I3
tp1268
a(I1327
I3
tp1269
a(I1326
I3
tp1270
a(I1323
I3
tp1271
a(I1318
I3
tp1272
a(I1304
I3
tp1273
a(I1301
I3
tp1274
a(I1300
I3
tp1275
a(I1287
I3
tp1276
a(I1286
I3
tp1277
a(I1284
I3
tp1278
a(I1281
I3
tp1279
a(I1278
I3
tp1280
a(I1271
I3
tp1281
a(I1254
I3
tp1282
a(I1246
I3
tp1283
a(I1240
I3
tp1284
a(I1236
I3
tp1285
a(I1226
I3
tp1286
a(I1212
I3
tp1287
a(I1211
I3
tp1288
a(I1210
I3
tp1289
a(I1204
I3
tp1290
a(I1188
I3
tp1291
a(I1183
I3
tp1292
a(I1180
I3
tp1293
a(I1176
I3
tp1294
a(I1174
I3
tp1295
a(I1168
I3
tp1296
a(I1157
I3
tp1297
a(I1154
I3
tp1298
a(I1149
I3
tp1299
a(I1147
I3
tp1300
a(I1144
I3
tp1301
a(I1107
I3
tp1302
a(I1103
I3
tp1303
a(I1099
I3
tp1304
a(I1091
I3
tp1305
a(I1082
I3
tp1306
a(I1076
I3
tp1307
a(I1061
I3
tp1308
a(I1054
I3
tp1309
a(I1030
I3
tp1310
a(I1025
I3
tp1311
a(I980
I3
tp1312
a(I917
I3
tp1313
a(I909
I3
tp1314
a(I866
I3
tp1315
a(I838
I3
tp1316
a(I803
I3
tp1317
a(I776
I3
tp1318
a(I775
I3
tp1319
a(I756
I3
tp1320
a(I705
I3
tp1321
a(I642
I3
tp1322
a(I340
I3
tp1323
a(I295
I3
tp1324
a(I266
I3
tp1325
a(I36
I3
tp1326
a(I34
I3
tp1327
a(I1655
I2
tp1328
a(I1643
I2
tp1329
a(I1638
I2
tp1330
a(I1622
I2
tp1331
a(I1609
I2
tp1332
a(I1606
I2
tp1333
a(I1597
I2
tp1334
a(I1596
I2
tp1335
a(I1591
I2
tp1336
a(I1577
I2
tp1337
a(I1572
I2
tp1338
a(I1554
I2
tp1339
a(I1552
I2
tp1340
a(I1550
I2
tp1341
a(I1548
I2
tp1342
a(I1544
I2
tp1343
a(I1538
I2
tp1344
a(I1534
I2
tp1345
a(I1528
I2
tp1346
a(I1526
I2
tp1347
a(I1512
I2
tp1348
a(I1508
I2
tp1349
a(I1507
I2
tp1350
a(I1499
I2
tp1351
a(I1476
I2
tp1352
a(I1470
I2
tp1353
a(I1469
I2
tp1354
a(I1464
I2
tp1355
a(I1463
I2
tp1356
a(I1458
I2
tp1357
a(I1453
I2
tp1358
a(I1449
I2
tp1359
a(I1447
I2
tp1360
a(I1444
I2
tp1361
a(I1441
I2
tp1362
a(I1434
I2
tp1363
a(I1430
I2
tp1364
a(I1426
I2
tp1365
a(I1425
I2
tp1366
a(I1423
I2
tp1367
a(I1421
I2
tp1368
a(I1417
I2
tp1369
a(I1402
I2
tp1370
a(I1401
I2
tp1371
a(I1391
I2
tp1372
a(I1386
I2
tp1373
a(I1381
I2
tp1374
a(I1379
I2
tp1375
a(I1371
I2
tp1376
a(I1368
I2
tp1377
a(I1366
I2
tp1378
a(I1357
I2
tp1379
a(I1349
I2
tp1380
a(I1345
I2
tp1381
a(I1344
I2
tp1382
a(I1343
I2
tp1383
a(I1332
I2
tp1384
a(I1322
I2
tp1385
a(I1307
I2
tp1386
a(I1305
I2
tp1387
a(I1293
I2
tp1388
a(I1289
I2
tp1389
a(I1288
I2
tp1390
a(I1269
I2
tp1391
a(I1258
I2
tp1392
a(I1249
I2
tp1393
a(I1232
I2
tp1394
a(I1222
I2
tp1395
a(I1215
I2
tp1396
a(I1185
I2
tp1397
a(I1163
I2
tp1398
a(I1161
I2
tp1399
a(I1105
I2
tp1400
a(I1042
I2
tp1401
a(I993
I2
tp1402
a(I986
I2
tp1403
a(I926
I2
tp1404
a(I919
I2
tp1405
a(I916
I2
tp1406
a(I912
I2
tp1407
a(I910
I2
tp1408
a(I906
I2
tp1409
a(I896
I2
tp1410
a(I867
I2
tp1411
a(I857
I2
tp1412
a(I850
I2
tp1413
a(I849
I2
tp1414
a(I821
I2
tp1415
a(I816
I2
tp1416
a(I798
I2
tp1417
a(I783
I2
tp1418
a(I441
I2
tp1419
a(I438
I2
tp1420
a(I436
I2
tp1421
a(I396
I2
tp1422
a(I246
I2
tp1423
a(I112
I2
tp1424
a(I103
I2
tp1425
a(I1675
I1
tp1426
a(I1674
I1
tp1427
a(I1672
I1
tp1428
a(I1671
I1
tp1429
a(I1665
I1
tp1430
a(I1664
I1
tp1431
a(I1663
I1
tp1432
a(I1661
I1
tp1433
a(I1657
I1
tp1434
a(I1656
I1
tp1435
a(I1653
I1
tp1436
a(I1651
I1
tp1437
a(I1650
I1
tp1438
a(I1648
I1
tp1439
a(I1647
I1
tp1440
a(I1645
I1
tp1441
a(I1644
I1
tp1442
a(I1642
I1
tp1443
a(I1641
I1
tp1444
a(I1637
I1
tp1445
a(I1636
I1
tp1446
a(I1634
I1
tp1447
a(I1633
I1
tp1448
a(I1632
I1
tp1449
a(I1631
I1
tp1450
a(I1630
I1
tp1451
a(I1627
I1
tp1452
a(I1626
I1
tp1453
a(I1624
I1
tp1454
a(I1623
I1
tp1455
a(I1621
I1
tp1456
a(I1616
I1
tp1457
a(I1615
I1
tp1458
a(I1612
I1
tp1459
a(I1605
I1
tp1460
a(I1604
I1
tp1461
a(I1603
I1
tp1462
a(I1602
I1
tp1463
a(I1601
I1
tp1464
a(I1599
I1
tp1465
a(I1595
I1
tp1466
a(I1589
I1
tp1467
a(I1587
I1
tp1468
a(I1585
I1
tp1469
a(I1584
I1
tp1470
a(I1583
I1
tp1471
a(I1576
I1
tp1472
a(I1575
I1
tp1473
a(I1573
I1
tp1474
a(I1571
I1
tp1475
a(I1570
I1
tp1476
a(I1569
I1
tp1477
a(I1568
I1
tp1478
a(I1565
I1
tp1479
a(I1564
I1
tp1480
a(I1563
I1
tp1481
a(I1562
I1
tp1482
a(I1560
I1
tp1483
a(I1556
I1
tp1484
a(I1555
I1
tp1485
a(I1553
I1
tp1486
a(I1546
I1
tp1487
a(I1545
I1
tp1488
a(I1543
I1
tp1489
a(I1542
I1
tp1490
a(I1535
I1
tp1491
a(I1532
I1
tp1492
a(I1531
I1
tp1493
a(I1529
I1
tp1494
a(I1527
I1
tp1495
a(I1524
I1
tp1496
a(I1522
I1
tp1497
a(I1519
I1
tp1498
a(I1518
I1
tp1499
a(I1515
I1
tp1500
a(I1509
I1
tp1501
a(I1504
I1
tp1502
a(I1503
I1
tp1503
a(I1501
I1
tp1504
a(I1498
I1
tp1505
a(I1497
I1
tp1506
a(I1496
I1
tp1507
a(I1494
I1
tp1508
a(I1492
I1
tp1509
a(I1490
I1
tp1510
a(I1480
I1
tp1511
a(I1471
I1
tp1512
a(I1466
I1
tp1513
a(I1462
I1
tp1514
a(I1459
I1
tp1515
a(I1457
I1
tp1516
a(I1454
I1
tp1517
a(I1451
I1
tp1518
a(I1437
I1
tp1519
a(I1435
I1
tp1520
a(I1432
I1
tp1521
a(I1431
I1
tp1522
a(I1424
I1
tp1523
a(I1419
I1
tp1524
a(I1416
I1
tp1525
a(I1415
I1
tp1526
a(I1409
I1
tp1527
a(I1396
I1
tp1528
a(I1389
I1
tp1529
a(I1388
I1
tp1530
a(I1387
I1
tp1531
a(I1376
I1
tp1532
a(I1373
I1
tp1533
a(I1369
I1
tp1534
a(I1365
I1
tp1535
a(I1364
I1
tp1536
a(I1363
I1
tp1537
a(I1362
I1
tp1538
a(I1361
I1
tp1539
a(I1360
I1
tp1540
a(I1359
I1
tp1541
a(I1358
I1
tp1542
a(I1353
I1
tp1543
a(I1351
I1
tp1544
a(I1347
I1
tp1545
a(I1342
I1
tp1546
a(I1341
I1
tp1547
a(I1340
I1
tp1548
a(I1338
I1
tp1549
a(I1333
I1
tp1550
a(I1330
I1
tp1551
a(I1329
I1
tp1552
a(I1328
I1
tp1553
a(I1324
I1
tp1554
a(I1321
I1
tp1555
a(I1320
I1
tp1556
a(I1319
I1
tp1557
a(I1317
I1
tp1558
a(I1316
I1
tp1559
a(I1306
I1
tp1560
a(I1274
I1
tp1561
a(I1260
I1
tp1562
a(I1256
I1
tp1563
a(I1235
I1
tp1564
a(I1201
I1
tp1565
a(I1200
I1
tp1566
a(I1195
I1
tp1567
a(I1190
I1
tp1568
a(I1145
I1
tp1569
a(I1137
I1
tp1570
a(I1124
I1
tp1571
a(I1122
I1
tp1572
a(I1121
I1
tp1573
a(I1110
I1
tp1574
a(I1095
I1
tp1575
a(I1086
I1
tp1576
a(I1081
I1
tp1577
a(I1079
I1
tp1578
a(I1063
I1
tp1579
a(I1026
I1
tp1580
a(I991
I1
tp1581
a(I956
I1
tp1582
a(I860
I1
tp1583
a(I851
I1
tp1584
a(I837
I1
tp1585
a(I829
I1
tp1586
a(I813
I1
tp1587
a(I710
I1
tp1588
a(I665
I1
tp1589
a(I599
I1
tp1590
a(I598
I1
tp1591
a(I597
I1
tp1592
a(I313
I1
tp1593
a(I118
I1
tp1594
a(I1673
I0
tp1595
a(I1670
I0
tp1596
a(I1669
I0
tp1597
a(I1668
I0
tp1598
a(I1667
I0
tp1599
a(I1666
I0
tp1600
a(I1662
I0
tp1601
a(I1660
I0
tp1602
a(I1659
I0
tp1603
a(I1658
I0
tp1604
a(I1654
I0
tp1605
a(I1652
I0
tp1606
a(I1649
I0
tp1607
a(I1646
I0
tp1608
a(I1640
I0
tp1609
a(I1639
I0
tp1610
a(I1635
I0
tp1611
a(I1629
I0
tp1612
a(I1628
I0
tp1613
a(I1625
I0
tp1614
a(I1620
I0
tp1615
a(I1618
I0
tp1616
a(I1617
I0
tp1617
a(I1613
I0
tp1618
a(I1610
I0
tp1619
a(I1607
I0
tp1620
a(I1600
I0
tp1621
a(I1598
I0
tp1622
a(I1594
I0
tp1623
a(I1593
I0
tp1624
a(I1592
I0
tp1625
a(I1586
I0
tp1626
a(I1582
I0
tp1627
a(I1581
I0
tp1628
a(I1580
I0
tp1629
a(I1579
I0
tp1630
a(I1578
I0
tp1631
a(I1574
I0
tp1632
a(I1567
I0
tp1633
a(I1566
I0
tp1634
a(I1561
I0
tp1635
a(I1558
I0
tp1636
a(I1551
I0
tp1637
a(I1549
I0
tp1638
a(I1547
I0
tp1639
a(I1541
I0
tp1640
a(I1540
I0
tp1641
a(I1537
I0
tp1642
a(I1525
I0
tp1643
a(I1514
I0
tp1644
a(I1506
I0
tp1645
a(I1493
I0
tp1646
a(I1491
I0
tp1647
a(I1487
I0
tp1648
a(I1485
I0
tp1649
a(I1483
I0
tp1650
a(I1481
I0
tp1651
a(I1475
I0
tp1652
a(I1460
I0
tp1653
a(I1456
I0
tp1654
a(I1452
I0
tp1655
a(I1446
I0
tp1656
a(I1413
I0
tp1657
a(I1407
I0
tp1658
a(I1397
I0
tp1659
a(I1390
I0
tp1660
a(I1383
I0
tp1661
a(I1372
I0
tp1662
a(I1370
I0
tp1663
a(I1355
I0
tp1664
a(I1350
I0
tp1665
a(I1348
I0
tp1666
a(I1339
I0
tp1667
a(I1331
I0
tp1668
a(I1309
I0
tp1669
a(I1308
I0
tp1670
a(I1303
I0
tp1671
a(I1292
I0
tp1672
a(I1291
I0
tp1673
a(I1259
I0
tp1674
a(I1255
I0
tp1675
a(I1234
I0
tp1676
a(I1155
I0
tp1677
a(I1143
I0
tp1678
a(I1129
I0
tp1679
a(I856
I0
tp1680
a(I787
I0
tp1681
a(I676
I0
tp1682
a(I625
I0
tp1683
asS'thresh'
p1684
I0
sS'description'
p1685
S'ItemPop'
p1686
sS'method'
p1687
S'count'
p1688
sb.